	.file	"test6005.IntegerMulAlgo.cpp"
	.text
	.align 2
	.p2align 4,,15
	.def	__ZN5CCore4Math11FastMulAlgoIN3App12Private_60054BaseELb0EE4TempC1Ej.constprop.84;	.scl	3;	.type	32;	.endef
__ZN5CCore4Math11FastMulAlgoIN3App12Private_60054BaseELb0EE4TempC1Ej.constprop.84:
LFB5280:
	.cfi_startproc
	movl	$0, 1028(%eax)
	movl	%eax, 1024(%eax)
	ret
	.cfi_endproc
LFE5280:
	.p2align 4,,15
	.def	__ZN5CCore4Math11FastMulAlgoIN3App12Private_60054BaseELb0EE4UMulEPjPKjjS8_j.part.71;	.scl	3;	.type	32;	.endef
__ZN5CCore4Math11FastMulAlgoIN3App12Private_60054BaseELb0EE4UMulEPjPKjjS8_j.part.71:
LFB5276:
	.cfi_startproc
	.cfi_personality 0,___gxx_personality_v0
	.cfi_lsda 0,LLSDA5276
	subl	$1068, %esp
	.cfi_def_cfa_offset 1072
	leal	24(%esp), %edx
	movl	%edx, %eax
	call	__ZN5CCore4Math11FastMulAlgoIN3App12Private_60054BaseELb0EE4TempC1Ej.constprop.84
	movl	1048(%esp), %eax
	cmpl	%edx, %eax
	je	L5
	movl	%eax, (%esp)
	call	__ZN5CCore16TaskMemStackFreeEPv
L5:
	addl	$1068, %esp
	.cfi_def_cfa_offset 4
	ret
	.cfi_endproc
LFE5276:
	.def	___gxx_personality_v0;	.scl	2;	.type	32;	.endef
	.section	.gcc_except_table,"w"
LLSDA5276:
	.byte	0xff
	.byte	0xff
	.byte	0x1
	.uleb128 LLSDACSE5276-LLSDACSB5276
LLSDACSB5276:
LLSDACSE5276:
	.text
	.section	.text$_ZN5CCore9PrintfDevINS_8PrintConEE4findEv,"x"
	.linkonce discard
	.align 2
	.p2align 4,,15
	.globl	__ZN5CCore9PrintfDevINS_8PrintConEE4findEv
	.def	__ZN5CCore9PrintfDevINS_8PrintConEE4findEv;	.scl	2;	.type	32;	.endef
__ZN5CCore9PrintfDevINS_8PrintConEE4findEv:
LFB4816:
	.cfi_startproc
	pushl	%edi
	.cfi_def_cfa_offset 8
	.cfi_offset 7, -8
	pushl	%esi
	.cfi_def_cfa_offset 12
	.cfi_offset 6, -12
	pushl	%ebx
	.cfi_def_cfa_offset 16
	.cfi_offset 3, -16
	subl	$16, %esp
	.cfi_def_cfa_offset 32
	movl	32(%esp), %edi
	movl	280(%edi), %ebx
	leal	4(%edi), %esi
	jmp	L12
	.p2align 4,,10
L10:
	leal	1(%eax), %edx
	movl	%edx, 12(%edi)
	movb	$35, (%eax)
L11:
	addl	$2, %ebx
	movl	%ebx, 280(%edi)
L12:
	movl	%ebx, (%esp)
	movl	$35, 4(%esp)
	call	__ZN5CCore13PrintfDevBase4FindEPKcc
	movl	%eax, %ebx
	movl	280(%edi), %eax
	movl	%esi, (%esp)
	movl	%ebx, %edx
	subl	%eax, %edx
	movl	%eax, 4(%esp)
	movl	%edx, 8(%esp)
	call	__ZN5CCore9PrintBase3putEPKcj
	cmpb	$0, (%ebx)
	je	L8
	cmpb	$35, 1(%ebx)
	jne	L9
	movl	12(%edi), %eax
	cmpl	16(%edi), %eax
	jb	L10
	movl	$1, 4(%esp)
	movl	%esi, (%esp)
	call	__ZN5CCore9PrintBase17flush_and_provideEj
	testb	%al, %al
	je	L11
	movl	12(%edi), %eax
	jmp	L10
	.p2align 4,,10
L8:
	movl	%ebx, 280(%edi)
	addl	$16, %esp
	.cfi_remember_state
	.cfi_def_cfa_offset 16
	xorl	%eax, %eax
	xorl	%edx, %edx
	popl	%ebx
	.cfi_restore 3
	.cfi_def_cfa_offset 12
	popl	%esi
	.cfi_restore 6
	.cfi_def_cfa_offset 8
	popl	%edi
	.cfi_restore 7
	.cfi_def_cfa_offset 4
	ret
	.p2align 4,,10
L9:
	.cfi_restore_state
	addl	$1, %ebx
	movl	$59, 4(%esp)
	movl	%ebx, (%esp)
	call	__ZN5CCore13PrintfDevBase4FindEPKcc
	cmpb	$0, (%eax)
	movl	%eax, %edx
	je	L13
	leal	1(%eax), %eax
	movl	%eax, 280(%edi)
	addl	$16, %esp
	.cfi_remember_state
	.cfi_def_cfa_offset 16
	movl	%ebx, %eax
	popl	%ebx
	.cfi_restore 3
	.cfi_def_cfa_offset 12
	popl	%esi
	.cfi_restore 6
	.cfi_def_cfa_offset 8
	popl	%edi
	.cfi_restore 7
	.cfi_def_cfa_offset 4
	ret
	.p2align 4,,10
L13:
	.cfi_restore_state
	movl	%ebx, 280(%edi)
	addl	$16, %esp
	.cfi_def_cfa_offset 16
	movl	%ebx, %eax
	movl	%ebx, %edx
	popl	%ebx
	.cfi_restore 3
	.cfi_def_cfa_offset 12
	popl	%esi
	.cfi_restore 6
	.cfi_def_cfa_offset 8
	popl	%edi
	.cfi_restore 7
	.cfi_def_cfa_offset 4
	ret
	.cfi_endproc
LFE4816:
	.section .rdata,"dr"
LC0:
	.ascii "n = #;\12\0"
LC1:
	.ascii "0123456789ABCDEF\0"
	.text
	.p2align 4,,15
	.def	__ZN5CCore6PrintfINS_7ConTypeEJjEEEvOT_PKcDpRKT0_.isra.59.constprop.74;	.scl	3;	.type	32;	.endef
__ZN5CCore6PrintfINS_7ConTypeEJjEEEvOT_PKcDpRKT0_.isra.59.constprop.74:
LFB5290:
	.cfi_startproc
	.cfi_personality 0,___gxx_personality_v0
	.cfi_lsda 0,LLSDA5290
	pushl	%ebp
	.cfi_def_cfa_offset 8
	.cfi_offset 5, -8
	pushl	%edi
	.cfi_def_cfa_offset 12
	.cfi_offset 7, -12
	movl	%eax, %edi
	pushl	%esi
	.cfi_def_cfa_offset 16
	.cfi_offset 6, -16
	pushl	%ebx
	.cfi_def_cfa_offset 20
	.cfi_offset 3, -20
	subl	$476, %esp
	.cfi_def_cfa_offset 496
	leal	180(%esp), %ebx
	movl	$0, 196(%esp)
	movl	%ebx, (%esp)
	leal	184(%esp), %esi
	movl	$0, 192(%esp)
	movl	$0, 188(%esp)
	movb	$0, 200(%esp)
	movl	$__ZTVN5CCore8PrintConE+8, 184(%esp)
	movl	$LC0, 460(%esp)
LEHB0:
	call	__ZN5CCore9PrintfDevINS_8PrintConEE4findEv
	testl	%eax, %eax
	je	L142
	movl	%eax, 4(%esp)
	leal	48(%esp), %eax
	movl	%edx, 8(%esp)
	leal	184(%esp), %esi
	movl	%eax, (%esp)
	call	__ZN5CCore11IntPrintOptC1EPKcS2_
	movl	48(%esp), %eax
	movl	52(%esp), %ecx
	movl	64(%esp), %edx
	movl	(%edi), %esi
	movl	%eax, 28(%esp)
	movl	60(%esp), %eax
	movl	56(%esp), %ebp
	movl	%ecx, 72(%esp)
	movl	%edx, 76(%esp)
	movl	%eax, 32(%esp)
	movl	68(%esp), %eax
	movl	%eax, 80(%esp)
	testl	%ecx, %ecx
	jne	L22
	leal	165(%esp), %edi
	orl	%edx, %eax
	setne	84(%esp)
	movl	%edi, 176(%esp)
	movl	%edi, 172(%esp)
	testl	%eax, %eax
	jne	L184
	leal	164(%esp), %eax
	movl	%esi, %ecx
	movl	%edi, %edx
	movl	%eax, 168(%esp)
	movl	%eax, %edi
	movb	%cl, 164(%esp)
L24:
	testl	%ebp, %ebp
	jne	L185
	movl	28(%esp), %eax
	movl	%edx, %ebp
	subl	%edi, %ebp
	cmpl	%ebp, %eax
	jbe	L77
	subl	%ebp, %eax
	movl	%eax, 28(%esp)
	movl	72(%esp), %eax
	testl	%eax, %eax
	jne	L90
	cmpl	$2, 32(%esp)
	je	L78
L90:
	movl	32(%esp), %eax
	cmpl	$1, %eax
	je	L78
	jb	L80
	cmpl	$2, %eax
	jne	L142
	movl	172(%esp), %ebp
	leal	184(%esp), %esi
	movl	%edi, 4(%esp)
	movl	%esi, (%esp)
	movl	%ebp, %eax
	subl	%ebp, %edx
	subl	%edi, %eax
	movl	%edx, 32(%esp)
	movl	%eax, 8(%esp)
	call	__ZN5CCore9PrintBase3putEPKcj
	movl	28(%esp), %eax
	movl	$48, 4(%esp)
	movl	%esi, (%esp)
	movl	%eax, 8(%esp)
	call	__ZN5CCore9PrintBase3putEcj
	movl	32(%esp), %edx
	movl	%ebp, 4(%esp)
	movl	%esi, (%esp)
	movl	%edx, 8(%esp)
	call	__ZN5CCore9PrintBase3putEPKcj
	jmp	L84
	.p2align 4,,10
L185:
	movl	172(%esp), %eax
	subl	%eax, %edx
	movl	%eax, %ecx
	movl	%eax, 40(%esp)
	movl	%edx, 36(%esp)
	leal	2(%ebp), %eax
	movl	%edx, %esi
	subl	%edi, %ecx
	leal	1(%edx), %edx
	cmpl	%ebp, %esi
	movl	%ecx, 44(%esp)
	cmova	%edx, %eax
	addl	%ecx, %eax
	movl	28(%esp), %ecx
	cmpl	%eax, %ecx
	jbe	L41
	subl	%eax, %ecx
	movl	32(%esp), %eax
	movl	%ecx, 28(%esp)
	cmpl	$1, %eax
	je	L43
	jb	L44
	cmpl	$2, %eax
	je	L45
	.p2align 4,,10
L142:
	leal	184(%esp), %esi
	jmp	L84
	.p2align 4,,10
L186:
	movl	%ebx, (%esp)
	call	__ZN5CCore9PrintfDevINS_8PrintConEE4findEv
LEHE0:
L84:
	movl	460(%esp), %eax
	cmpb	$0, (%eax)
	jne	L186
	movl	%esi, (%esp)
	movl	$__ZTVN5CCore8PrintConE+8, 184(%esp)
	call	__ZN5CCore9PrintBase5flushEv
	addl	$476, %esp
	.cfi_remember_state
	.cfi_def_cfa_offset 20
	popl	%ebx
	.cfi_restore 3
	.cfi_def_cfa_offset 16
	popl	%esi
	.cfi_restore 6
	.cfi_def_cfa_offset 12
	popl	%edi
	.cfi_restore 7
	.cfi_def_cfa_offset 8
	popl	%ebp
	.cfi_restore 5
	.cfi_def_cfa_offset 4
	ret
	.p2align 4,,10
L22:
	.cfi_restore_state
	leal	-2(%ecx), %edx
	cmpl	$14, %edx
	ja	L187
	cmpl	$16, %ecx
	setne	36(%esp)
	cmpl	$2, %eax
	je	L27
	cmpl	$1, %eax
	sete	%dl
	movl	%edx, %edi
	movzbl	36(%esp), %edx
	andl	%edi, %edx
	cmpl	$2, %ecx
	movb	%dl, 36(%esp)
	setne	%dl
	movl	%edx, %edi
	movzbl	36(%esp), %edx
	andl	%edi, %edx
	leal	165(%esp), %edi
	movb	%dl, 84(%esp)
	movl	%edi, 176(%esp)
	movl	%edi, 172(%esp)
	movl	%edi, 168(%esp)
	testb	%dl, %dl
	jne	L26
	cmpl	$1, %eax
	je	L188
L29:
	testl	%esi, %esi
	jne	L34
	leal	-1(%edi), %eax
	movl	%eax, 168(%esp)
	movb	$48, -1(%edi)
	movl	168(%esp), %edi
	cmpl	$2, 80(%esp)
	movl	%edi, 172(%esp)
	je	L35
L140:
	movl	176(%esp), %edx
	jmp	L24
	.p2align 4,,10
L187:
	leal	165(%esp), %edi
	movb	$1, 84(%esp)
	movl	%edi, 176(%esp)
	movl	%edi, 172(%esp)
	movl	%edi, 168(%esp)
L26:
	movl	%edi, %edx
	jmp	L24
	.p2align 4,,10
L184:
	movl	%edi, 168(%esp)
	jmp	L26
	.p2align 4,,10
L34:
	leal	-1(%edi), %eax
	xorl	%edx, %edx
	movl	%eax, 168(%esp)
	movl	%esi, %eax
	divl	%ecx
	movzbl	LC1(%edx), %eax
	xorl	%edx, %edx
	movb	%al, -1(%edi)
	movl	72(%esp), %ecx
	movl	%esi, %eax
	movl	168(%esp), %edi
	divl	%ecx
	movl	%eax, %esi
	testl	%eax, %eax
	jne	L34
	cmpl	$2, 80(%esp)
	movl	%edi, 172(%esp)
	je	L36
L86:
	cmpl	$1, 76(%esp)
	jne	L140
	leal	-1(%edi), %eax
	movl	%eax, 168(%esp)
	movb	$43, -1(%edi)
	movl	168(%esp), %edi
	jmp	L140
	.p2align 4,,10
L77:
	leal	184(%esp), %esi
	movl	%ebp, 8(%esp)
	movl	%edi, 4(%esp)
	movl	%esi, (%esp)
LEHB1:
	call	__ZN5CCore9PrintBase3putEPKcj
	jmp	L84
	.p2align 4,,10
L41:
	movl	44(%esp), %eax
	leal	184(%esp), %esi
	movl	%edi, 4(%esp)
	movl	%esi, (%esp)
	movl	%eax, 8(%esp)
	call	__ZN5CCore9PrintBase3putEPKcj
L183:
	movl	$0, 8(%esp)
	movl	$48, 4(%esp)
	movl	%esi, (%esp)
	call	__ZN5CCore9PrintBase3putEcj
L180:
	movl	36(%esp), %eax
	cmpl	%ebp, %eax
	ja	L189
	movl	192(%esp), %edx
	cmpl	196(%esp), %edx
	jnb	L190
L72:
	leal	1(%edx), %eax
	movl	%eax, 192(%esp)
	movb	$48, (%edx)
	movl	192(%esp), %edx
L73:
	cmpl	%edx, 196(%esp)
	jbe	L191
L74:
	leal	1(%edx), %eax
	movl	%eax, 192(%esp)
	movb	$46, (%edx)
L75:
	movl	36(%esp), %edi
	movl	%ebp, %eax
	movl	$48, 4(%esp)
	movl	%esi, (%esp)
	subl	%edi, %eax
	movl	%eax, 8(%esp)
	call	__ZN5CCore9PrintBase3putEcj
	movl	40(%esp), %eax
	movl	%edi, 8(%esp)
	movl	%esi, (%esp)
	movl	%eax, 4(%esp)
	call	__ZN5CCore9PrintBase3putEPKcj
	jmp	L84
	.p2align 4,,10
L189:
	movl	40(%esp), %ecx
	subl	%ebp, %eax
	movl	%esi, (%esp)
	movl	%eax, 8(%esp)
	movl	%ecx, 4(%esp)
	leal	(%ecx,%eax), %edi
	call	__ZN5CCore9PrintBase3putEPKcj
	movl	192(%esp), %eax
	cmpl	196(%esp), %eax
	jnb	L192
L70:
	leal	1(%eax), %edx
	movl	%edx, 192(%esp)
	movb	$46, (%eax)
L146:
	movl	%ebp, 8(%esp)
	movl	%edi, 4(%esp)
	movl	%esi, (%esp)
	call	__ZN5CCore9PrintBase3putEPKcj
	jmp	L84
	.p2align 4,,10
L78:
	movl	28(%esp), %eax
	leal	184(%esp), %esi
	movl	$32, 4(%esp)
	movl	%esi, (%esp)
	movl	%eax, 8(%esp)
	call	__ZN5CCore9PrintBase3putEcj
	jmp	L146
L45:
	movl	44(%esp), %eax
	leal	184(%esp), %esi
	movl	%edi, 4(%esp)
	movl	%esi, (%esp)
	movl	%eax, 8(%esp)
	call	__ZN5CCore9PrintBase3putEPKcj
	movl	28(%esp), %eax
	movl	$48, 4(%esp)
	movl	%esi, (%esp)
	movl	%eax, 8(%esp)
	call	__ZN5CCore9PrintBase3putEcj
	jmp	L180
L188:
	cmpl	$2, %ecx
	je	L30
	cmpl	$16, %ecx
	jne	L29
	movb	$104, 164(%esp)
	leal	164(%esp), %edi
	jmp	L29
L36:
	leal	-1(%edi), %eax
	movl	%eax, 168(%esp)
	movb	$120, -1(%edi)
	movl	168(%esp), %eax
	leal	-1(%eax), %edx
	movl	%edx, 168(%esp)
	movb	$48, -1(%eax)
	movl	168(%esp), %edi
	jmp	L86
L35:
	leal	-1(%edi), %eax
	movl	%eax, 168(%esp)
	movb	$120, -1(%edi)
	movl	168(%esp), %eax
	leal	-1(%eax), %edx
	movl	%edx, 168(%esp)
	movb	$48, -1(%eax)
	movl	168(%esp), %edi
	movl	176(%esp), %edx
	jmp	L24
L27:
	movzbl	36(%esp), %eax
	leal	165(%esp), %edi
	movl	%edi, 176(%esp)
	movl	%edi, 172(%esp)
	movl	%edi, 168(%esp)
	movb	%al, 84(%esp)
	cmpl	$16, %ecx
	je	L29
	jmp	L26
L44:
	movl	44(%esp), %eax
	leal	184(%esp), %esi
	movl	%edi, 4(%esp)
	movl	%esi, (%esp)
	movl	%eax, 8(%esp)
	call	__ZN5CCore9PrintBase3putEPKcj
	movl	$0, 8(%esp)
	movl	$48, 4(%esp)
	movl	%esi, (%esp)
	call	__ZN5CCore9PrintBase3putEcj
	movl	36(%esp), %eax
	cmpl	%ebp, %eax
	ja	L193
	movl	192(%esp), %edx
	cmpl	196(%esp), %edx
	jnb	L194
L50:
	leal	1(%edx), %eax
	movl	%eax, 192(%esp)
	movb	$48, (%edx)
	movl	192(%esp), %edx
L51:
	cmpl	%edx, 196(%esp)
	jbe	L195
L52:
	leal	1(%edx), %eax
	movl	%eax, 192(%esp)
	movb	$46, (%edx)
L53:
	movl	36(%esp), %edi
	movl	%ebp, %eax
	movl	$48, 4(%esp)
	movl	%esi, (%esp)
	subl	%edi, %eax
	movl	%eax, 8(%esp)
	call	__ZN5CCore9PrintBase3putEcj
	movl	40(%esp), %eax
	movl	%edi, 8(%esp)
	movl	%esi, (%esp)
	movl	%eax, 4(%esp)
	call	__ZN5CCore9PrintBase3putEPKcj
L144:
	movl	28(%esp), %eax
	movl	$32, 4(%esp)
	movl	%esi, (%esp)
	movl	%eax, 8(%esp)
	call	__ZN5CCore9PrintBase3putEcj
	jmp	L84
L80:
	leal	184(%esp), %esi
	movl	%ebp, 8(%esp)
	movl	%edi, 4(%esp)
	movl	%esi, (%esp)
	call	__ZN5CCore9PrintBase3putEPKcj
	jmp	L144
L43:
	leal	184(%esp), %esi
	movl	%ecx, 8(%esp)
	movl	$32, 4(%esp)
	movl	%esi, (%esp)
	call	__ZN5CCore9PrintBase3putEcj
	movl	44(%esp), %eax
	movl	%edi, 4(%esp)
	movl	%esi, (%esp)
	movl	%eax, 8(%esp)
	call	__ZN5CCore9PrintBase3putEPKcj
	jmp	L183
L191:
	movl	$1, 4(%esp)
	movl	%esi, (%esp)
	call	__ZN5CCore9PrintBase17flush_and_provideEj
	testb	%al, %al
	je	L75
	movl	192(%esp), %edx
	jmp	L74
L190:
	movl	$1, 4(%esp)
	movl	%esi, (%esp)
	call	__ZN5CCore9PrintBase17flush_and_provideEj
	movl	192(%esp), %edx
	testb	%al, %al
	jne	L72
	jmp	L73
L192:
	movl	$1, 4(%esp)
	movl	%esi, (%esp)
	call	__ZN5CCore9PrintBase17flush_and_provideEj
	testb	%al, %al
	je	L146
	movl	192(%esp), %eax
	jmp	L70
L193:
	movl	40(%esp), %ecx
	subl	%ebp, %eax
	movl	%esi, (%esp)
	movl	%eax, 8(%esp)
	movl	%ecx, 4(%esp)
	leal	(%ecx,%eax), %edi
	call	__ZN5CCore9PrintBase3putEPKcj
	movl	192(%esp), %eax
	cmpl	196(%esp), %eax
	jnb	L196
L47:
	leal	1(%eax), %edx
	movl	%edx, 192(%esp)
	movb	$46, (%eax)
L48:
	movl	%ebp, 8(%esp)
	movl	%edi, 4(%esp)
	movl	%esi, (%esp)
	call	__ZN5CCore9PrintBase3putEPKcj
	jmp	L144
L30:
	movb	$98, 164(%esp)
	leal	164(%esp), %edi
	jmp	L29
L194:
	movl	$1, 4(%esp)
	movl	%esi, (%esp)
	call	__ZN5CCore9PrintBase17flush_and_provideEj
	movl	192(%esp), %edx
	testb	%al, %al
	jne	L50
	jmp	L51
L195:
	movl	$1, 4(%esp)
	movl	%esi, (%esp)
	call	__ZN5CCore9PrintBase17flush_and_provideEj
	testb	%al, %al
	je	L53
	movl	192(%esp), %edx
	jmp	L52
L196:
	movl	$1, 4(%esp)
	movl	%esi, (%esp)
	call	__ZN5CCore9PrintBase17flush_and_provideEj
LEHE1:
	testb	%al, %al
	je	L48
	movl	192(%esp), %eax
	jmp	L47
L89:
	movl	%eax, %ebx
	movl	%esi, (%esp)
	movl	$__ZTVN5CCore8PrintConE+8, 184(%esp)
	vzeroupper
	call	__ZN5CCore9PrintBase5flushEv
	movl	%ebx, (%esp)
LEHB2:
	call	__Unwind_Resume
LEHE2:
	.cfi_endproc
LFE5290:
	.section	.gcc_except_table,"w"
LLSDA5290:
	.byte	0xff
	.byte	0xff
	.byte	0x1
	.uleb128 LLSDACSE5290-LLSDACSB5290
LLSDACSB5290:
	.uleb128 LEHB0-LFB5290
	.uleb128 LEHE0-LEHB0
	.uleb128 L89-LFB5290
	.uleb128 0
	.uleb128 LEHB1-LFB5290
	.uleb128 LEHE1-LEHB1
	.uleb128 L89-LFB5290
	.uleb128 0
	.uleb128 LEHB2-LFB5290
	.uleb128 LEHE2-LEHB2
	.uleb128 0
	.uleb128 0
LLSDACSE5290:
	.text
	.section .rdata,"dr"
LC2:
	.ascii "test1 done\12\0"
	.text
	.p2align 4,,15
	.def	__ZN5CCore6PrintfINS_7ConTypeEJEEEvOT_PKcDpRKT0_.isra.29.constprop.82;	.scl	3;	.type	32;	.endef
__ZN5CCore6PrintfINS_7ConTypeEJEEEvOT_PKcDpRKT0_.isra.29.constprop.82:
LFB5282:
	.cfi_startproc
	.cfi_personality 0,___gxx_personality_v0
	.cfi_lsda 0,LLSDA5282
	pushl	%ebx
	.cfi_def_cfa_offset 8
	.cfi_offset 3, -8
	subl	$312, %esp
	.cfi_def_cfa_offset 320
	movl	$0, 36(%esp)
	leal	20(%esp), %ebx
	movl	$0, 32(%esp)
	movl	$0, 28(%esp)
	movb	$0, 40(%esp)
	movl	$__ZTVN5CCore8PrintConE+8, 24(%esp)
	movl	$LC2, 300(%esp)
	.p2align 4,,10
L198:
	movl	%ebx, (%esp)
LEHB3:
	call	__ZN5CCore9PrintfDevINS_8PrintConEE4findEv
LEHE3:
	movl	300(%esp), %eax
	cmpb	$0, (%eax)
	jne	L198
	leal	24(%esp), %eax
	movl	$__ZTVN5CCore8PrintConE+8, 24(%esp)
	movl	%eax, (%esp)
	call	__ZN5CCore9PrintBase5flushEv
	addl	$312, %esp
	.cfi_remember_state
	.cfi_def_cfa_offset 8
	popl	%ebx
	.cfi_restore 3
	.cfi_def_cfa_offset 4
	ret
L202:
	.cfi_restore_state
	movl	%eax, %ebx
	movl	$__ZTVN5CCore8PrintConE+8, 24(%esp)
	leal	24(%esp), %eax
	movl	%eax, (%esp)
	vzeroupper
	call	__ZN5CCore9PrintBase5flushEv
	movl	%ebx, (%esp)
LEHB4:
	call	__Unwind_Resume
LEHE4:
	.cfi_endproc
LFE5282:
	.section	.gcc_except_table,"w"
LLSDA5282:
	.byte	0xff
	.byte	0xff
	.byte	0x1
	.uleb128 LLSDACSE5282-LLSDACSB5282
LLSDACSB5282:
	.uleb128 LEHB3-LFB5282
	.uleb128 LEHE3-LEHB3
	.uleb128 L202-LFB5282
	.uleb128 0
	.uleb128 LEHB4-LFB5282
	.uleb128 LEHE4-LEHB4
	.uleb128 0
	.uleb128 0
LLSDACSE5282:
	.text
	.section	.text$_ZN5CCore9PrintfDevIRNS_9PrintBaseEE4findEv,"x"
	.linkonce discard
	.align 2
	.p2align 4,,15
	.globl	__ZN5CCore9PrintfDevIRNS_9PrintBaseEE4findEv
	.def	__ZN5CCore9PrintfDevIRNS_9PrintBaseEE4findEv;	.scl	2;	.type	32;	.endef
__ZN5CCore9PrintfDevIRNS_9PrintBaseEE4findEv:
LFB4846:
	.cfi_startproc
	pushl	%edi
	.cfi_def_cfa_offset 8
	.cfi_offset 7, -8
	pushl	%esi
	.cfi_def_cfa_offset 12
	.cfi_offset 6, -12
	pushl	%ebx
	.cfi_def_cfa_offset 16
	.cfi_offset 3, -16
	subl	$16, %esp
	.cfi_def_cfa_offset 32
	movl	32(%esp), %edi
	movl	4(%edi), %ebx
	jmp	L212
	.p2align 4,,10
L210:
	leal	1(%eax), %edx
	movl	%edx, 8(%esi)
	movb	$35, (%eax)
L211:
	addl	$2, %ebx
	movl	%ebx, 4(%edi)
L212:
	movl	%ebx, (%esp)
	movl	$35, 4(%esp)
	call	__ZN5CCore13PrintfDevBase4FindEPKcc
	movl	%eax, %ebx
	movl	4(%edi), %eax
	movl	%ebx, %edx
	subl	%eax, %edx
	movl	%eax, 4(%esp)
	movl	%edx, 8(%esp)
	movl	(%edi), %eax
	movl	%eax, (%esp)
	call	__ZN5CCore9PrintBase3putEPKcj
	cmpb	$0, (%ebx)
	je	L208
	cmpb	$35, 1(%ebx)
	jne	L209
	movl	(%edi), %esi
	movl	8(%esi), %eax
	cmpl	12(%esi), %eax
	jb	L210
	movl	$1, 4(%esp)
	movl	%esi, (%esp)
	call	__ZN5CCore9PrintBase17flush_and_provideEj
	testb	%al, %al
	je	L211
	movl	8(%esi), %eax
	jmp	L210
	.p2align 4,,10
L208:
	movl	%ebx, 4(%edi)
	addl	$16, %esp
	.cfi_remember_state
	.cfi_def_cfa_offset 16
	xorl	%eax, %eax
	xorl	%edx, %edx
	popl	%ebx
	.cfi_restore 3
	.cfi_def_cfa_offset 12
	popl	%esi
	.cfi_restore 6
	.cfi_def_cfa_offset 8
	popl	%edi
	.cfi_restore 7
	.cfi_def_cfa_offset 4
	ret
	.p2align 4,,10
L209:
	.cfi_restore_state
	addl	$1, %ebx
	movl	$59, 4(%esp)
	movl	%ebx, (%esp)
	call	__ZN5CCore13PrintfDevBase4FindEPKcc
	cmpb	$0, (%eax)
	movl	%eax, %edx
	je	L213
	leal	1(%eax), %eax
	movl	%eax, 4(%edi)
	addl	$16, %esp
	.cfi_remember_state
	.cfi_def_cfa_offset 16
	movl	%ebx, %eax
	popl	%ebx
	.cfi_restore 3
	.cfi_def_cfa_offset 12
	popl	%esi
	.cfi_restore 6
	.cfi_def_cfa_offset 8
	popl	%edi
	.cfi_restore 7
	.cfi_def_cfa_offset 4
	ret
	.p2align 4,,10
L213:
	.cfi_restore_state
	movl	%ebx, 4(%edi)
	addl	$16, %esp
	.cfi_def_cfa_offset 16
	movl	%ebx, %eax
	movl	%ebx, %edx
	popl	%ebx
	.cfi_restore 3
	.cfi_def_cfa_offset 12
	popl	%esi
	.cfi_restore 6
	.cfi_def_cfa_offset 8
	popl	%edi
	.cfi_restore 7
	.cfi_def_cfa_offset 4
	ret
	.cfi_endproc
LFE4846:
	.section .rdata,"dr"
LC3:
	.ascii "\12#;\12\12\0"
	.text
	.p2align 4,,15
	.def	__ZN5CCore6PrintfIRNS_9PrintFileEJNS_11TextDividerEEEEvOT_PKcDpRKT0_.isra.49.constprop.83;	.scl	3;	.type	32;	.endef
__ZN5CCore6PrintfIRNS_9PrintFileEJNS_11TextDividerEEEEvOT_PKcDpRKT0_.isra.49.constprop.83:
LFB5281:
	.cfi_startproc
	pushl	%esi
	.cfi_def_cfa_offset 8
	.cfi_offset 6, -8
	pushl	%ebx
	.cfi_def_cfa_offset 12
	.cfi_offset 3, -12
	subl	$36, %esp
	.cfi_def_cfa_offset 48
	movl	%eax, 16(%esp)
	leal	16(%esp), %eax
	movl	%eax, (%esp)
	movl	$LC3, 20(%esp)
	call	__ZN5CCore9PrintfDevIRNS_9PrintBaseEE4findEv
	testl	%eax, %eax
	je	L221
	movl	%eax, 4(%esp)
	leal	24(%esp), %eax
	movl	16(%esp), %ebx
	movl	%eax, (%esp)
	movl	%edx, 8(%esp)
	call	__ZN5CCore19TextDividerPrintOptC1EPKcS2_
	movl	24(%esp), %eax
	movl	%ebx, (%esp)
	movl	%eax, 8(%esp)
	movsbl	28(%esp), %eax
	movl	%eax, 4(%esp)
	call	__ZN5CCore9PrintBase3putEcj
L221:
	movl	20(%esp), %ebx
L222:
	cmpb	$0, (%ebx)
	jne	L228
	jmp	L237
	.p2align 4,,10
L226:
	leal	1(%eax), %edx
	movl	%edx, 8(%esi)
	movb	$35, (%eax)
L227:
	addl	$2, %ebx
	movl	%ebx, 20(%esp)
L228:
	movl	%ebx, (%esp)
	movl	$35, 4(%esp)
	call	__ZN5CCore13PrintfDevBase4FindEPKcc
	movl	%eax, %ebx
	movl	20(%esp), %eax
	movl	%ebx, %edx
	subl	%eax, %edx
	movl	%eax, 4(%esp)
	movl	16(%esp), %eax
	movl	%edx, 8(%esp)
	movl	%eax, (%esp)
	call	__ZN5CCore9PrintBase3putEPKcj
	cmpb	$0, (%ebx)
	je	L224
	cmpb	$35, 1(%ebx)
	jne	L225
	movl	16(%esp), %esi
	movl	8(%esi), %eax
	cmpl	12(%esi), %eax
	jb	L226
	movl	$1, 4(%esp)
	movl	%esi, (%esp)
	call	__ZN5CCore9PrintBase17flush_and_provideEj
	testb	%al, %al
	je	L227
	movl	8(%esi), %eax
	jmp	L226
	.p2align 4,,10
L224:
	movl	%ebx, 20(%esp)
	cmpb	$0, (%ebx)
	jne	L228
L237:
	addl	$36, %esp
	.cfi_remember_state
	.cfi_def_cfa_offset 12
	popl	%ebx
	.cfi_restore 3
	.cfi_def_cfa_offset 8
	popl	%esi
	.cfi_restore 6
	.cfi_def_cfa_offset 4
	ret
	.p2align 4,,10
L225:
	.cfi_restore_state
	addl	$1, %ebx
	movl	$59, 4(%esp)
	movl	%ebx, (%esp)
	call	__ZN5CCore13PrintfDevBase4FindEPKcc
	cmpb	$0, (%eax)
	je	L224
	leal	1(%eax), %ebx
	movl	%ebx, 20(%esp)
	jmp	L222
	.cfi_endproc
LFE5281:
	.section	.text$_ZN5CCore6PrintfIRNS_9PrintFileEJNS_5TitleEEEEvOT_PKcDpRKT0_,"x"
	.linkonce discard
	.p2align 4,,15
	.globl	__ZN5CCore6PrintfIRNS_9PrintFileEJNS_5TitleEEEEvOT_PKcDpRKT0_
	.def	__ZN5CCore6PrintfIRNS_9PrintFileEJNS_5TitleEEEEvOT_PKcDpRKT0_;	.scl	2;	.type	32;	.endef
__ZN5CCore6PrintfIRNS_9PrintFileEJNS_5TitleEEEEvOT_PKcDpRKT0_:
LFB4832:
	.cfi_startproc
	pushl	%ebp
	.cfi_def_cfa_offset 8
	.cfi_offset 5, -8
	pushl	%edi
	.cfi_def_cfa_offset 12
	.cfi_offset 7, -12
	pushl	%esi
	.cfi_def_cfa_offset 16
	.cfi_offset 6, -16
	pushl	%ebx
	.cfi_def_cfa_offset 20
	.cfi_offset 3, -20
	subl	$76, %esp
	.cfi_def_cfa_offset 96
	movl	96(%esp), %eax
	movl	104(%esp), %ebx
	movl	%eax, 44(%esp)
	movl	100(%esp), %eax
	movl	%eax, 48(%esp)
	leal	44(%esp), %eax
	movl	%eax, (%esp)
	call	__ZN5CCore9PrintfDevIRNS_9PrintBaseEE4findEv
	testl	%eax, %eax
	je	L240
	movl	%eax, 4(%esp)
	leal	52(%esp), %eax
	movl	44(%esp), %ebp
	movl	%edx, 8(%esp)
	movl	%eax, (%esp)
	call	__ZN5CCore13TitlePrintOptC1EPKcS2_
	movl	56(%esp), %esi
	movsbl	60(%esp), %edi
	movl	%ebp, (%esp)
	movl	52(%esp), %eax
	movl	%esi, 8(%esp)
	movl	%edi, 4(%esp)
	movl	%eax, 28(%esp)
	call	__ZN5CCore9PrintBase3putEcj
	movl	8(%ebp), %eax
	cmpl	12(%ebp), %eax
	jnb	L273
L241:
	leal	1(%eax), %edx
	movl	%edx, 8(%ebp)
	movb	$32, (%eax)
L242:
	movl	4(%ebx), %eax
	movl	%eax, 8(%esp)
	movl	(%ebx), %eax
	movl	%ebp, (%esp)
	movl	%eax, 4(%esp)
	call	__ZN5CCore9PrintBase3putEPKcj
	movl	8(%ebp), %eax
	cmpl	12(%ebp), %eax
	jnb	L274
L243:
	leal	1(%eax), %edx
	movl	%edx, 8(%ebp)
	movb	$32, (%eax)
L244:
	movl	4(%ebx), %edx
	movl	(%ebx), %eax
	movl	$0, %ebx
	movl	%edx, 4(%esp)
	movl	%eax, (%esp)
	call	__ZN5CCore7Utf8LenENS_6StrLenE
	movl	28(%esp), %ecx
	movl	%ecx, %edx
	subl	%esi, %edx
	cmpl	%ecx, %esi
	cmova	%ebx, %edx
	cmpl	%edx, %eax
	ja	L246
	subl	%eax, %edx
	leal	-2(%edx), %eax
	cmpl	$1, %edx
	cmova	%eax, %ebx
L246:
	movl	%ebx, 8(%esp)
	movl	%edi, 4(%esp)
	movl	%ebp, (%esp)
	call	__ZN5CCore9PrintBase3putEcj
L240:
	movl	48(%esp), %ebx
L247:
	cmpb	$0, (%ebx)
	jne	L253
	jmp	L271
	.p2align 4,,10
L251:
	leal	1(%eax), %edx
	movl	%edx, 8(%esi)
	movb	$35, (%eax)
L252:
	addl	$2, %ebx
	movl	%ebx, 48(%esp)
L253:
	movl	%ebx, (%esp)
	movl	$35, 4(%esp)
	call	__ZN5CCore13PrintfDevBase4FindEPKcc
	movl	%eax, %ebx
	movl	48(%esp), %eax
	movl	%ebx, %edx
	subl	%eax, %edx
	movl	%eax, 4(%esp)
	movl	44(%esp), %eax
	movl	%edx, 8(%esp)
	movl	%eax, (%esp)
	call	__ZN5CCore9PrintBase3putEPKcj
	cmpb	$0, (%ebx)
	je	L249
	cmpb	$35, 1(%ebx)
	jne	L250
	movl	44(%esp), %esi
	movl	8(%esi), %eax
	cmpl	12(%esi), %eax
	jb	L251
	movl	$1, 4(%esp)
	movl	%esi, (%esp)
	call	__ZN5CCore9PrintBase17flush_and_provideEj
	testb	%al, %al
	je	L252
	movl	8(%esi), %eax
	jmp	L251
	.p2align 4,,10
L249:
	movl	%ebx, 48(%esp)
	cmpb	$0, (%ebx)
	jne	L253
L271:
	addl	$76, %esp
	.cfi_remember_state
	.cfi_def_cfa_offset 20
	popl	%ebx
	.cfi_restore 3
	.cfi_def_cfa_offset 16
	popl	%esi
	.cfi_restore 6
	.cfi_def_cfa_offset 12
	popl	%edi
	.cfi_restore 7
	.cfi_def_cfa_offset 8
	popl	%ebp
	.cfi_restore 5
	.cfi_def_cfa_offset 4
	ret
	.p2align 4,,10
L250:
	.cfi_restore_state
	addl	$1, %ebx
	movl	$59, 4(%esp)
	movl	%ebx, (%esp)
	call	__ZN5CCore13PrintfDevBase4FindEPKcc
	cmpb	$0, (%eax)
	je	L249
	leal	1(%eax), %ebx
	movl	%ebx, 48(%esp)
	jmp	L247
L273:
	movl	$1, 4(%esp)
	movl	%ebp, (%esp)
	call	__ZN5CCore9PrintBase17flush_and_provideEj
	testb	%al, %al
	je	L242
	movl	8(%ebp), %eax
	jmp	L241
L274:
	movl	$1, 4(%esp)
	movl	%ebp, (%esp)
	call	__ZN5CCore9PrintBase17flush_and_provideEj
	testb	%al, %al
	je	L244
	movl	8(%ebp), %eax
	jmp	L243
	.cfi_endproc
LFE4832:
	.section .rdata,"dr"
LC4:
	.ascii "#;\0"
	.def	___umoddi3;	.scl	2;	.type	32;	.endef
	.def	___udivdi3;	.scl	2;	.type	32;	.endef
	.text
	.p2align 4,,15
	.def	__ZN5CCore6PrintfIRNS_9PrintBaseEJyEEEvOT_PKcDpRKT0_.constprop.80;	.scl	3;	.type	32;	.endef
__ZN5CCore6PrintfIRNS_9PrintBaseEJyEEEvOT_PKcDpRKT0_.constprop.80:
LFB5284:
	.cfi_startproc
	pushl	%ebp
	.cfi_def_cfa_offset 8
	.cfi_offset 5, -8
	pushl	%edi
	.cfi_def_cfa_offset 12
	.cfi_offset 7, -12
	pushl	%esi
	.cfi_def_cfa_offset 16
	.cfi_offset 6, -16
	pushl	%ebx
	.cfi_def_cfa_offset 20
	.cfi_offset 3, -20
	movl	%edx, %ebx
	subl	$204, %esp
	.cfi_def_cfa_offset 224
	movl	%eax, 52(%esp)
	leal	52(%esp), %eax
	movl	%eax, (%esp)
	movl	$LC4, 56(%esp)
	call	__ZN5CCore9PrintfDevIRNS_9PrintBaseEE4findEv
	testl	%eax, %eax
	je	L276
	movl	%eax, 4(%esp)
	leal	60(%esp), %eax
	movl	52(%esp), %ebp
	movl	%edx, 8(%esp)
	movl	%eax, (%esp)
	call	__ZN5CCore11IntPrintOptC1EPKcS2_
	movl	4(%ebx), %eax
	movl	64(%esp), %esi
	movl	76(%esp), %edx
	movl	(%ebx), %ecx
	movl	%eax, %edi
	movl	60(%esp), %eax
	movl	%esi, 84(%esp)
	movl	%edx, 88(%esp)
	movl	%eax, 32(%esp)
	movl	68(%esp), %eax
	movl	%eax, 28(%esp)
	movl	72(%esp), %eax
	movl	%eax, 36(%esp)
	movl	80(%esp), %eax
	movl	%eax, 92(%esp)
	testl	%esi, %esi
	jne	L277
	leal	177(%esp), %ebx
	orl	%edx, %eax
	setne	96(%esp)
	movl	%ebx, 188(%esp)
	movl	%ebx, 184(%esp)
	testl	%eax, %eax
	jne	L434
	leal	176(%esp), %eax
	movb	%cl, 176(%esp)
	movl	%eax, 180(%esp)
L279:
	movl	28(%esp), %edi
	testl	%edi, %edi
	jne	L435
L293:
	movl	32(%esp), %ecx
	movl	%ebx, %esi
	subl	%eax, %esi
	cmpl	%ecx, %esi
	jnb	L331
	movl	84(%esp), %edx
	movl	%ecx, %edi
	subl	%esi, %edi
	testl	%edx, %edx
	jne	L356
	cmpl	$2, 36(%esp)
	je	L332
L356:
	movl	36(%esp), %ecx
	cmpl	$1, %ecx
	je	L332
	jb	L334
	cmpl	$2, %ecx
	jne	L276
	movl	184(%esp), %esi
	movl	%eax, 4(%esp)
	movl	%ebp, (%esp)
	movl	%esi, %edx
	subl	%esi, %ebx
	subl	%eax, %edx
	movl	%edx, 8(%esp)
	call	__ZN5CCore9PrintBase3putEPKcj
	movl	%edi, 8(%esp)
	movl	$48, 4(%esp)
	movl	%ebp, (%esp)
	call	__ZN5CCore9PrintBase3putEcj
	movl	%ebx, 8(%esp)
	movl	%esi, 4(%esp)
	movl	%ebp, (%esp)
	call	__ZN5CCore9PrintBase3putEPKcj
	.p2align 4,,10
L276:
	movl	56(%esp), %ebx
L336:
	cmpb	$0, (%ebx)
	jne	L342
	jmp	L414
	.p2align 4,,10
L340:
	leal	1(%eax), %edx
	movl	%edx, 8(%esi)
	movb	$35, (%eax)
L341:
	addl	$2, %ebx
	movl	%ebx, 56(%esp)
L342:
	movl	%ebx, (%esp)
	movl	$35, 4(%esp)
	call	__ZN5CCore13PrintfDevBase4FindEPKcc
	movl	%eax, %ebx
	movl	56(%esp), %eax
	movl	%ebx, %edx
	subl	%eax, %edx
	movl	%eax, 4(%esp)
	movl	52(%esp), %eax
	movl	%edx, 8(%esp)
	movl	%eax, (%esp)
	call	__ZN5CCore9PrintBase3putEPKcj
	cmpb	$0, (%ebx)
	je	L338
	cmpb	$35, 1(%ebx)
	jne	L339
	movl	52(%esp), %esi
	movl	8(%esi), %eax
	cmpl	12(%esi), %eax
	jb	L340
	movl	$1, 4(%esp)
	movl	%esi, (%esp)
	call	__ZN5CCore9PrintBase17flush_and_provideEj
	testb	%al, %al
	je	L341
	movl	8(%esi), %eax
	jmp	L340
	.p2align 4,,10
L338:
	movl	%ebx, 56(%esp)
	cmpb	$0, (%ebx)
	jne	L342
L414:
	addl	$204, %esp
	.cfi_remember_state
	.cfi_def_cfa_offset 20
	popl	%ebx
	.cfi_restore 3
	.cfi_def_cfa_offset 16
	popl	%esi
	.cfi_restore 6
	.cfi_def_cfa_offset 12
	popl	%edi
	.cfi_restore 7
	.cfi_def_cfa_offset 8
	popl	%ebp
	.cfi_restore 5
	.cfi_def_cfa_offset 4
	ret
	.p2align 4,,10
L339:
	.cfi_restore_state
	addl	$1, %ebx
	movl	$59, 4(%esp)
	movl	%ebx, (%esp)
	call	__ZN5CCore13PrintfDevBase4FindEPKcc
	cmpb	$0, (%eax)
	je	L338
	leal	1(%eax), %ebx
	movl	%ebx, 56(%esp)
	jmp	L336
L277:
	leal	-2(%esi), %edx
	cmpl	$14, %edx
	ja	L436
	cmpl	$16, %esi
	setne	%dl
	cmpl	$2, %eax
	je	L282
	cmpl	$1, %eax
	sete	%bl
	andl	%ebx, %edx
	cmpl	$2, %esi
	setne	%bl
	andl	%ebx, %edx
	leal	177(%esp), %ebx
	movb	%dl, 96(%esp)
	movl	%ebx, 188(%esp)
	movl	%ebx, 184(%esp)
	movl	%ebx, 180(%esp)
	testb	%dl, %dl
	jne	L281
	cmpl	$1, %eax
	je	L437
L284:
	movl	%edi, %eax
	orl	%ecx, %edi
	je	L287
	movl	%ecx, %edx
	movl	%ebp, 44(%esp)
	movl	%ebx, %ecx
	xorl	%edi, %edi
	movl	%eax, %ebp
	movl	%edx, %ebx
	jmp	L289
L438:
	movl	180(%esp), %ecx
L289:
	leal	-1(%ecx), %eax
	movl	%esi, 8(%esp)
	movl	%edi, 12(%esp)
	xorl	%edi, %edi
	movl	%ebx, (%esp)
	movl	%ebp, 4(%esp)
	movl	%ecx, 40(%esp)
	movl	%eax, 180(%esp)
	call	___umoddi3
	movl	40(%esp), %ecx
	movzbl	LC1(%eax), %eax
	movb	%al, -1(%ecx)
	movl	84(%esp), %esi
	movl	%ebx, (%esp)
	movl	%ebp, 4(%esp)
	movl	%edi, 12(%esp)
	movl	%esi, 8(%esp)
	call	___udivdi3
	movl	%eax, %ebx
	movl	%edx, %eax
	movl	%edx, %ebp
	orl	%ebx, %eax
	jne	L438
	movl	180(%esp), %eax
	cmpl	$2, 92(%esp)
	movl	44(%esp), %ebp
	movl	%eax, 184(%esp)
	je	L291
L349:
	cmpl	$1, 88(%esp)
	je	L292
L416:
	movl	28(%esp), %edi
	movl	188(%esp), %ebx
	testl	%edi, %edi
	je	L293
L435:
	movl	184(%esp), %esi
	movl	%esi, %edx
	subl	%esi, %ebx
	subl	%eax, %edx
	cmpl	%edi, %ebx
	jbe	L294
	leal	1(%edx,%ebx), %ecx
	cmpl	32(%esp), %ecx
	jnb	L439
	movl	32(%esp), %edi
	subl	%ecx, %edi
	movl	36(%esp), %ecx
	cmpl	$1, %ecx
	je	L311
	jb	L299
	cmpl	$2, %ecx
	jne	L276
	movl	%edx, 8(%esp)
	movl	%eax, 4(%esp)
	movl	%ebp, (%esp)
	call	__ZN5CCore9PrintBase3putEPKcj
	movl	%edi, 8(%esp)
L427:
	movl	$48, 4(%esp)
	movl	%ebp, (%esp)
	call	__ZN5CCore9PrintBase3putEcj
	subl	28(%esp), %ebx
L422:
	movl	%ebx, 8(%esp)
	movl	%esi, 4(%esp)
	leal	(%esi,%ebx), %edi
	movl	%ebp, (%esp)
	call	__ZN5CCore9PrintBase3putEPKcj
	movl	8(%ebp), %eax
	cmpl	12(%ebp), %eax
	jnb	L440
L347:
	leal	1(%eax), %edx
	movl	%edx, 8(%ebp)
	movb	$46, (%eax)
L326:
	movl	28(%esp), %eax
	movl	%edi, 4(%esp)
	movl	%ebp, (%esp)
	movl	%eax, 8(%esp)
	call	__ZN5CCore9PrintBase3putEPKcj
	jmp	L276
L436:
	leal	177(%esp), %ebx
	movb	$1, 96(%esp)
	movl	%ebx, 188(%esp)
	movl	%ebx, 184(%esp)
	movl	%ebx, 180(%esp)
L281:
	movl	%ebx, %eax
	jmp	L279
L434:
	movl	%ebx, 180(%esp)
	movl	%ebx, %eax
	jmp	L279
L294:
	leal	2(%edx,%edi), %ecx
	cmpl	%ecx, 32(%esp)
	jbe	L441
	movl	32(%esp), %edi
	subl	%ecx, %edi
	movl	36(%esp), %ecx
	cmpl	$1, %ecx
	je	L311
	jb	L353
	cmpl	$2, %ecx
	jne	L276
	movl	%edx, 8(%esp)
	movl	%eax, 4(%esp)
	movl	%ebp, (%esp)
	call	__ZN5CCore9PrintBase3putEPKcj
	movl	%edi, 8(%esp)
	jmp	L431
L331:
	movl	%esi, 8(%esp)
	movl	%eax, 4(%esp)
	movl	%ebp, (%esp)
	call	__ZN5CCore9PrintBase3putEPKcj
	jmp	L276
L332:
	movl	%edi, 8(%esp)
	movl	$32, 4(%esp)
	movl	%ebp, (%esp)
	movl	%eax, 28(%esp)
	call	__ZN5CCore9PrintBase3putEcj
	movl	28(%esp), %eax
	movl	%esi, 8(%esp)
	movl	%ebp, (%esp)
	movl	%eax, 4(%esp)
	call	__ZN5CCore9PrintBase3putEPKcj
	jmp	L276
L287:
	leal	-1(%ebx), %eax
	movl	%eax, 180(%esp)
	movb	$48, -1(%ebx)
	movl	180(%esp), %eax
	cmpl	$2, 92(%esp)
	movl	%eax, 184(%esp)
	jne	L416
	leal	-1(%eax), %edx
	movl	%edx, 180(%esp)
	movb	$120, -1(%eax)
	movl	180(%esp), %eax
	leal	-1(%eax), %edx
	movl	%edx, 180(%esp)
	movb	$48, -1(%eax)
	movl	180(%esp), %eax
	movl	188(%esp), %ebx
	jmp	L279
L282:
	leal	177(%esp), %ebx
	movb	%dl, 96(%esp)
	movl	%ebx, 188(%esp)
	movl	%ebx, 184(%esp)
	movl	%ebx, 180(%esp)
	cmpl	$16, %esi
	je	L284
	movl	%ebx, %eax
	jmp	L279
L441:
	movl	%edx, 8(%esp)
	movl	%eax, 4(%esp)
	movl	%ebp, (%esp)
	call	__ZN5CCore9PrintBase3putEPKcj
	movl	$0, 8(%esp)
L431:
	movl	$48, 4(%esp)
	movl	%ebp, (%esp)
	call	__ZN5CCore9PrintBase3putEcj
L432:
	movl	8(%ebp), %eax
	cmpl	12(%ebp), %eax
	jnb	L442
L345:
	leal	1(%eax), %edx
	movl	%edx, 8(%ebp)
	movb	$48, (%eax)
L327:
	movl	8(%ebp), %eax
	cmpl	12(%ebp), %eax
	jnb	L443
L328:
	leal	1(%eax), %edx
	movl	%edx, 8(%ebp)
	movb	$46, (%eax)
L329:
	movl	28(%esp), %eax
	movl	$48, 4(%esp)
	movl	%ebp, (%esp)
	subl	%ebx, %eax
	movl	%eax, 8(%esp)
	call	__ZN5CCore9PrintBase3putEcj
	movl	%ebx, 8(%esp)
	movl	%esi, 4(%esp)
	movl	%ebp, (%esp)
	call	__ZN5CCore9PrintBase3putEPKcj
	jmp	L276
L437:
	cmpl	$2, %esi
	je	L285
	cmpl	$16, %esi
	jne	L284
	movb	$104, 176(%esp)
	leal	176(%esp), %ebx
	jmp	L284
L291:
	leal	-1(%eax), %edx
	movl	%edx, 180(%esp)
	movb	$120, -1(%eax)
	movl	180(%esp), %eax
	leal	-1(%eax), %edx
	movl	%edx, 180(%esp)
	movb	$48, -1(%eax)
	movl	180(%esp), %eax
	jmp	L349
L292:
	leal	-1(%eax), %edx
	movl	%edx, 180(%esp)
	movb	$43, -1(%eax)
	movl	180(%esp), %eax
	jmp	L416
L353:
	movl	%eax, 4(%esp)
	movl	%edx, 8(%esp)
	movl	%ebp, (%esp)
	call	__ZN5CCore9PrintBase3putEPKcj
	movl	$0, 8(%esp)
	movl	$48, 4(%esp)
	movl	%ebp, (%esp)
	call	__ZN5CCore9PrintBase3putEcj
	movl	8(%ebp), %eax
	cmpl	12(%ebp), %eax
	jnb	L444
L307:
	leal	1(%eax), %edx
	movl	%edx, 8(%ebp)
	movb	$48, (%eax)
L306:
	movl	8(%ebp), %eax
	cmpl	12(%ebp), %eax
	jnb	L445
L308:
	leal	1(%eax), %edx
	movl	%edx, 8(%ebp)
	movb	$46, (%eax)
L309:
	movl	28(%esp), %eax
	movl	$48, 4(%esp)
	movl	%ebp, (%esp)
	subl	%ebx, %eax
	movl	%eax, 8(%esp)
	call	__ZN5CCore9PrintBase3putEcj
	movl	%ebx, 8(%esp)
	movl	%esi, 4(%esp)
L417:
	movl	%ebp, (%esp)
	call	__ZN5CCore9PrintBase3putEPKcj
L304:
	movl	%edi, 8(%esp)
	movl	$32, 4(%esp)
	movl	%ebp, (%esp)
	call	__ZN5CCore9PrintBase3putEcj
	jmp	L276
L311:
	movl	%edi, 8(%esp)
	movl	$32, 4(%esp)
	movl	%ebp, (%esp)
	movl	%edx, 36(%esp)
	movl	%eax, 32(%esp)
	call	__ZN5CCore9PrintBase3putEcj
	movl	32(%esp), %eax
	movl	%ebp, (%esp)
	movl	36(%esp), %edx
	movl	%eax, 4(%esp)
	movl	%edx, 8(%esp)
	call	__ZN5CCore9PrintBase3putEPKcj
	movl	$0, 8(%esp)
	movl	$48, 4(%esp)
	movl	%ebp, (%esp)
	call	__ZN5CCore9PrintBase3putEcj
	movl	28(%esp), %eax
	cmpl	%eax, %ebx
	jbe	L432
	subl	%eax, %ebx
	jmp	L422
L334:
	movl	%esi, 8(%esp)
	movl	%eax, 4(%esp)
	jmp	L417
L439:
	movl	%edx, 8(%esp)
	movl	%eax, 4(%esp)
	movl	%ebp, (%esp)
	call	__ZN5CCore9PrintBase3putEPKcj
	movl	$0, 8(%esp)
	jmp	L427
L443:
	movl	$1, 4(%esp)
	movl	%ebp, (%esp)
	call	__ZN5CCore9PrintBase17flush_and_provideEj
	testb	%al, %al
	je	L329
	movl	8(%ebp), %eax
	jmp	L328
L442:
	movl	$1, 4(%esp)
	movl	%ebp, (%esp)
	call	__ZN5CCore9PrintBase17flush_and_provideEj
	testb	%al, %al
	je	L327
	movl	8(%ebp), %eax
	jmp	L345
L440:
	movl	$1, 4(%esp)
	movl	%ebp, (%esp)
	call	__ZN5CCore9PrintBase17flush_and_provideEj
	testb	%al, %al
	je	L326
	movl	8(%ebp), %eax
	jmp	L347
L299:
	movl	%edx, 8(%esp)
	movl	%eax, 4(%esp)
	movl	%ebp, (%esp)
	call	__ZN5CCore9PrintBase3putEPKcj
	movl	$0, 8(%esp)
	movl	$48, 4(%esp)
	movl	%ebp, (%esp)
	call	__ZN5CCore9PrintBase3putEcj
	movl	%ebx, %eax
	subl	28(%esp), %eax
	movl	%esi, 4(%esp)
	movl	%ebp, (%esp)
	movl	%eax, 8(%esp)
	leal	(%esi,%eax), %ebx
	call	__ZN5CCore9PrintBase3putEPKcj
	movl	8(%ebp), %eax
	cmpl	12(%ebp), %eax
	jnb	L301
L303:
	leal	1(%eax), %edx
	movl	%edx, 8(%ebp)
	movb	$46, (%eax)
L302:
	movl	28(%esp), %eax
	movl	%ebx, 4(%esp)
	movl	%ebp, (%esp)
	movl	%eax, 8(%esp)
	call	__ZN5CCore9PrintBase3putEPKcj
	jmp	L304
L285:
	movb	$98, 176(%esp)
	leal	176(%esp), %ebx
	jmp	L284
L301:
	movl	$1, 4(%esp)
	movl	%ebp, (%esp)
	call	__ZN5CCore9PrintBase17flush_and_provideEj
	testb	%al, %al
	je	L302
	movl	8(%ebp), %eax
	jmp	L303
L445:
	movl	$1, 4(%esp)
	movl	%ebp, (%esp)
	call	__ZN5CCore9PrintBase17flush_and_provideEj
	testb	%al, %al
	je	L309
	movl	8(%ebp), %eax
	jmp	L308
L444:
	movl	$1, 4(%esp)
	movl	%ebp, (%esp)
	call	__ZN5CCore9PrintBase17flush_and_provideEj
	testb	%al, %al
	je	L306
	movl	8(%ebp), %eax
	jmp	L307
	.cfi_endproc
LFE5284:
	.section	.text$_ZN5CCore5PutchIRNS_9PrintFileEJcEEEvOT_DpT0_,"x"
	.linkonce discard
	.p2align 4,,15
	.globl	__ZN5CCore5PutchIRNS_9PrintFileEJcEEEvOT_DpT0_
	.def	__ZN5CCore5PutchIRNS_9PrintFileEJcEEEvOT_DpT0_;	.scl	2;	.type	32;	.endef
__ZN5CCore5PutchIRNS_9PrintFileEJcEEEvOT_DpT0_:
LFB4945:
	.cfi_startproc
	pushl	%esi
	.cfi_def_cfa_offset 8
	.cfi_offset 6, -8
	pushl	%ebx
	.cfi_def_cfa_offset 12
	.cfi_offset 3, -12
	subl	$20, %esp
	.cfi_def_cfa_offset 32
	movl	32(%esp), %ebx
	movl	36(%esp), %esi
	movl	8(%ebx), %eax
	cmpl	12(%ebx), %eax
	jnb	L454
L447:
	movl	%esi, %ecx
	leal	1(%eax), %edx
	movl	%edx, 8(%ebx)
	movb	%cl, (%eax)
L452:
	addl	$20, %esp
	.cfi_remember_state
	.cfi_def_cfa_offset 12
	popl	%ebx
	.cfi_restore 3
	.cfi_def_cfa_offset 8
	popl	%esi
	.cfi_restore 6
	.cfi_def_cfa_offset 4
	ret
	.p2align 4,,10
L454:
	.cfi_restore_state
	movl	$1, 4(%esp)
	movl	%ebx, (%esp)
	call	__ZN5CCore9PrintBase17flush_and_provideEj
	testb	%al, %al
	je	L452
	movl	8(%ebx), %eax
	jmp	L447
	.cfi_endproc
LFE4945:
	.section	.text$_ZN5CCore6PrintfIRNS_9PrintFileEJjyEEEvOT_PKcDpRKT0_,"x"
	.linkonce discard
	.p2align 4,,15
	.globl	__ZN5CCore6PrintfIRNS_9PrintFileEJjyEEEvOT_PKcDpRKT0_
	.def	__ZN5CCore6PrintfIRNS_9PrintFileEJjyEEEvOT_PKcDpRKT0_;	.scl	2;	.type	32;	.endef
__ZN5CCore6PrintfIRNS_9PrintFileEJjyEEEvOT_PKcDpRKT0_:
LFB4951:
	.cfi_startproc
	pushl	%ebp
	.cfi_def_cfa_offset 8
	.cfi_offset 5, -8
	pushl	%edi
	.cfi_def_cfa_offset 12
	.cfi_offset 7, -12
	pushl	%esi
	.cfi_def_cfa_offset 16
	.cfi_offset 6, -16
	pushl	%ebx
	.cfi_def_cfa_offset 20
	.cfi_offset 3, -20
	subl	$204, %esp
	.cfi_def_cfa_offset 224
	movl	224(%esp), %eax
	leal	52(%esp), %edi
	movl	%edi, (%esp)
	movl	%eax, 52(%esp)
	movl	228(%esp), %eax
	movl	%eax, 56(%esp)
	call	__ZN5CCore9PrintfDevIRNS_9PrintBaseEE4findEv
	testl	%eax, %eax
	je	L456
	movl	%eax, 4(%esp)
	leal	60(%esp), %eax
	movl	52(%esp), %esi
	movl	%edx, 8(%esp)
	movl	%eax, (%esp)
	call	__ZN5CCore11IntPrintOptC1EPKcS2_
	movl	232(%esp), %eax
	movl	64(%esp), %ecx
	movl	76(%esp), %edx
	movl	(%eax), %ebp
	movl	60(%esp), %eax
	movl	%ecx, 84(%esp)
	movl	%edx, 88(%esp)
	movl	%eax, 32(%esp)
	movl	68(%esp), %eax
	movl	%eax, 28(%esp)
	movl	72(%esp), %eax
	movl	%eax, 36(%esp)
	movl	80(%esp), %eax
	movl	%eax, 92(%esp)
	testl	%ecx, %ecx
	jne	L457
	leal	177(%esp), %ebx
	orl	%edx, %eax
	setne	96(%esp)
	movl	%ebx, 188(%esp)
	movl	%ebx, 184(%esp)
	testl	%eax, %eax
	jne	L760
	leal	176(%esp), %eax
	movl	%ebp, %ecx
	movl	%eax, 180(%esp)
	movb	%cl, 176(%esp)
L459:
	movl	28(%esp), %edx
	testl	%edx, %edx
	jne	L761
L473:
	movl	32(%esp), %ecx
	movl	%ebx, %ebp
	subl	%eax, %ebp
	cmpl	%ebp, %ecx
	jbe	L508
	subl	%ebp, %ecx
	movl	%ecx, %edx
	movl	84(%esp), %ecx
	testl	%ecx, %ecx
	jne	L603
	cmpl	$2, 36(%esp)
	je	L509
L603:
	movl	36(%esp), %ecx
	cmpl	$1, %ecx
	je	L509
	jb	L511
	cmpl	$2, %ecx
	jne	L456
	movl	184(%esp), %ebp
	movl	%eax, 4(%esp)
	movl	%esi, (%esp)
	movl	%edx, 28(%esp)
	movl	%ebp, %ecx
	subl	%ebp, %ebx
	subl	%eax, %ecx
	movl	%ecx, 8(%esp)
	call	__ZN5CCore9PrintBase3putEPKcj
	movl	28(%esp), %edx
	movl	$48, 4(%esp)
	movl	%esi, (%esp)
	movl	%edx, 8(%esp)
	call	__ZN5CCore9PrintBase3putEcj
	movl	%ebx, 8(%esp)
	movl	%ebp, 4(%esp)
	movl	%esi, (%esp)
	call	__ZN5CCore9PrintBase3putEPKcj
	.p2align 4,,10
L456:
	movl	%edi, (%esp)
	call	__ZN5CCore9PrintfDevIRNS_9PrintBaseEE4findEv
	testl	%eax, %eax
	je	L513
	movl	%eax, 4(%esp)
	leal	60(%esp), %eax
	movl	52(%esp), %ebp
	movl	%edx, 8(%esp)
	movl	%eax, (%esp)
	call	__ZN5CCore11IntPrintOptC1EPKcS2_
	movl	236(%esp), %eax
	movl	64(%esp), %esi
	movl	76(%esp), %edx
	movl	(%eax), %ecx
	movl	4(%eax), %eax
	movl	%esi, 84(%esp)
	movl	%edx, 88(%esp)
	movl	%eax, %edi
	movl	60(%esp), %eax
	movl	%eax, 32(%esp)
	movl	68(%esp), %eax
	movl	%eax, 28(%esp)
	movl	72(%esp), %eax
	movl	%eax, 36(%esp)
	movl	80(%esp), %eax
	movl	%eax, 92(%esp)
	testl	%esi, %esi
	jne	L514
	leal	177(%esp), %ebx
	orl	%edx, %eax
	setne	96(%esp)
	movl	%ebx, 188(%esp)
	movl	%ebx, 184(%esp)
	testl	%eax, %eax
	jne	L762
	leal	176(%esp), %edi
	movb	%cl, 176(%esp)
	movl	%edi, 180(%esp)
L516:
	movl	28(%esp), %ecx
	testl	%ecx, %ecx
	jne	L763
L530:
	movl	32(%esp), %eax
	movl	%ebx, %esi
	subl	%edi, %esi
	cmpl	%eax, %esi
	jnb	L565
	movl	84(%esp), %edx
	subl	%esi, %eax
	testl	%edx, %edx
	jne	L604
	cmpl	$2, 36(%esp)
	je	L566
L604:
	movl	36(%esp), %ecx
	cmpl	$1, %ecx
	je	L566
	jb	L568
	cmpl	$2, %ecx
	jne	L513
	movl	184(%esp), %esi
	movl	%edi, 4(%esp)
	movl	%ebp, (%esp)
	movl	%eax, 28(%esp)
	movl	%esi, %edx
	subl	%esi, %ebx
	subl	%edi, %edx
	movl	%edx, 8(%esp)
	call	__ZN5CCore9PrintBase3putEPKcj
	movl	28(%esp), %eax
	movl	$48, 4(%esp)
	movl	%ebp, (%esp)
	movl	%eax, 8(%esp)
	call	__ZN5CCore9PrintBase3putEcj
	movl	%ebx, 8(%esp)
	movl	%esi, 4(%esp)
	movl	%ebp, (%esp)
	call	__ZN5CCore9PrintBase3putEPKcj
	.p2align 4,,10
L513:
	movl	56(%esp), %ebx
L570:
	cmpb	$0, (%ebx)
	jne	L576
	jmp	L722
	.p2align 4,,10
L574:
	leal	1(%eax), %edx
	movl	%edx, 8(%esi)
	movb	$35, (%eax)
L575:
	addl	$2, %ebx
	movl	%ebx, 56(%esp)
L576:
	movl	%ebx, (%esp)
	movl	$35, 4(%esp)
	call	__ZN5CCore13PrintfDevBase4FindEPKcc
	movl	%eax, %ebx
	movl	56(%esp), %eax
	movl	%ebx, %edx
	subl	%eax, %edx
	movl	%eax, 4(%esp)
	movl	52(%esp), %eax
	movl	%edx, 8(%esp)
	movl	%eax, (%esp)
	call	__ZN5CCore9PrintBase3putEPKcj
	cmpb	$0, (%ebx)
	je	L572
	cmpb	$35, 1(%ebx)
	jne	L573
	movl	52(%esp), %esi
	movl	8(%esi), %eax
	cmpl	12(%esi), %eax
	jb	L574
	movl	$1, 4(%esp)
	movl	%esi, (%esp)
	call	__ZN5CCore9PrintBase17flush_and_provideEj
	testb	%al, %al
	je	L575
	movl	8(%esi), %eax
	jmp	L574
	.p2align 4,,10
L572:
	movl	%ebx, 56(%esp)
	cmpb	$0, (%ebx)
	jne	L576
L722:
	addl	$204, %esp
	.cfi_remember_state
	.cfi_def_cfa_offset 20
	popl	%ebx
	.cfi_restore 3
	.cfi_def_cfa_offset 16
	popl	%esi
	.cfi_restore 6
	.cfi_def_cfa_offset 12
	popl	%edi
	.cfi_restore 7
	.cfi_def_cfa_offset 8
	popl	%ebp
	.cfi_restore 5
	.cfi_def_cfa_offset 4
	ret
	.p2align 4,,10
L573:
	.cfi_restore_state
	addl	$1, %ebx
	movl	$59, 4(%esp)
	movl	%ebx, (%esp)
	call	__ZN5CCore13PrintfDevBase4FindEPKcc
	cmpb	$0, (%eax)
	je	L572
	leal	1(%eax), %ebx
	movl	%ebx, 56(%esp)
	jmp	L570
L514:
	leal	-2(%esi), %edx
	cmpl	$14, %edx
	ja	L764
	cmpl	$16, %esi
	setne	%bl
	cmpl	$2, %eax
	je	L519
	cmpl	$1, %eax
	sete	%dl
	andl	%edx, %ebx
	cmpl	$2, %esi
	setne	%dl
	andl	%ebx, %edx
	leal	177(%esp), %ebx
	movb	%dl, 96(%esp)
	movl	%ebx, 188(%esp)
	movl	%ebx, 184(%esp)
	movl	%ebx, 180(%esp)
	testb	%dl, %dl
	jne	L518
	cmpl	$1, %eax
	je	L765
L521:
	movl	%edi, %eax
	orl	%ecx, %edi
	je	L524
	movl	%ecx, %edx
	movl	%ebp, 44(%esp)
	movl	%ebx, %ecx
	xorl	%edi, %edi
	movl	%eax, %ebp
	movl	%edx, %ebx
	jmp	L526
L766:
	movl	180(%esp), %ecx
L526:
	leal	-1(%ecx), %eax
	movl	%esi, 8(%esp)
	movl	%edi, 12(%esp)
	xorl	%edi, %edi
	movl	%ebx, (%esp)
	movl	%ebp, 4(%esp)
	movl	%ecx, 40(%esp)
	movl	%eax, 180(%esp)
	call	___umoddi3
	movl	40(%esp), %ecx
	movzbl	LC1(%eax), %eax
	movb	%al, -1(%ecx)
	movl	84(%esp), %esi
	movl	%ebx, (%esp)
	movl	%ebp, 4(%esp)
	movl	%edi, 12(%esp)
	movl	%esi, 8(%esp)
	call	___udivdi3
	movl	%eax, %ebx
	movl	%edx, %eax
	movl	%edx, %ebp
	orl	%ebx, %eax
	jne	L766
	movl	180(%esp), %edi
	cmpl	$2, 92(%esp)
	movl	44(%esp), %ebp
	movl	%edi, 184(%esp)
	je	L528
L592:
	cmpl	$1, 88(%esp)
	je	L529
L726:
	movl	28(%esp), %ecx
	movl	188(%esp), %ebx
	testl	%ecx, %ecx
	je	L530
L763:
	movl	184(%esp), %esi
	movl	%esi, %eax
	subl	%esi, %ebx
	subl	%edi, %eax
	cmpl	%ecx, %ebx
	jbe	L531
	leal	1(%eax,%ebx), %edx
	cmpl	32(%esp), %edx
	jnb	L767
	movl	32(%esp), %ecx
	subl	%edx, %ecx
	movl	%ecx, 32(%esp)
	movl	36(%esp), %ecx
	cmpl	$1, %ecx
	je	L548
	jb	L536
	cmpl	$2, %ecx
	jne	L513
	movl	%eax, 8(%esp)
	movl	%edi, 4(%esp)
	movl	%ebp, (%esp)
	call	__ZN5CCore9PrintBase3putEPKcj
	movl	32(%esp), %eax
	movl	%eax, 8(%esp)
L745:
	movl	$48, 4(%esp)
	movl	%ebp, (%esp)
	call	__ZN5CCore9PrintBase3putEcj
	subl	28(%esp), %ebx
L739:
	movl	%ebx, 8(%esp)
	movl	%esi, 4(%esp)
	leal	(%esi,%ebx), %edi
	movl	%ebp, (%esp)
	call	__ZN5CCore9PrintBase3putEPKcj
	movl	8(%ebp), %eax
	cmpl	12(%ebp), %eax
	jnb	L768
L583:
	leal	1(%eax), %edx
	movl	%edx, 8(%ebp)
	movb	$46, (%eax)
L560:
	movl	28(%esp), %eax
	movl	%edi, 4(%esp)
	movl	%ebp, (%esp)
	movl	%eax, 8(%esp)
	call	__ZN5CCore9PrintBase3putEPKcj
	jmp	L513
L457:
	leal	-2(%ecx), %edx
	cmpl	$14, %edx
	ja	L769
	cmpl	$16, %ecx
	setne	%dl
	cmpl	$2, %eax
	je	L462
	cmpl	$1, %eax
	sete	%bl
	andl	%ebx, %edx
	cmpl	$2, %ecx
	setne	%bl
	andl	%ebx, %edx
	leal	177(%esp), %ebx
	movb	%dl, 96(%esp)
	movl	%ebx, 188(%esp)
	movl	%ebx, 184(%esp)
	movl	%ebx, 180(%esp)
	testb	%dl, %dl
	jne	L461
	cmpl	$1, %eax
	je	L770
L464:
	testl	%ebp, %ebp
	jne	L469
	leal	-1(%ebx), %eax
	movl	%eax, 180(%esp)
	movb	$48, -1(%ebx)
	movl	180(%esp), %eax
	cmpl	$2, 92(%esp)
	movl	%eax, 184(%esp)
	je	L470
L724:
	movl	28(%esp), %edx
	movl	188(%esp), %ebx
	testl	%edx, %edx
	je	L473
L761:
	movl	184(%esp), %ebp
	movl	%ebp, %ecx
	subl	%ebp, %ebx
	subl	%eax, %ecx
	movl	%ecx, 40(%esp)
	cmpl	%edx, %ebx
	jbe	L474
	leal	1(%ecx,%ebx), %edx
	cmpl	%edx, 32(%esp)
	jbe	L771
	movl	32(%esp), %ecx
	subl	%edx, %ecx
	movl	%ecx, 32(%esp)
	movl	36(%esp), %ecx
	cmpl	$1, %ecx
	je	L487
	jb	L588
L725:
	cmpl	$2, %ecx
	jne	L456
	movl	40(%esp), %ecx
	movl	%eax, 4(%esp)
	movl	%esi, (%esp)
	movl	%ecx, 8(%esp)
	call	__ZN5CCore9PrintBase3putEPKcj
	movl	32(%esp), %eax
	movl	%eax, 8(%esp)
L755:
	movl	$48, 4(%esp)
	movl	%esi, (%esp)
	call	__ZN5CCore9PrintBase3putEcj
	movl	28(%esp), %ecx
	cmpl	%ecx, %ebx
	ja	L772
L750:
	movl	8(%esi), %eax
	cmpl	12(%esi), %eax
	jnb	L773
L579:
	leal	1(%eax), %edx
	movl	%edx, 8(%esi)
	movb	$48, (%eax)
L504:
	movl	8(%esi), %eax
	cmpl	12(%esi), %eax
	jnb	L774
L505:
	leal	1(%eax), %edx
	movl	%edx, 8(%esi)
	movb	$46, (%eax)
L506:
	movl	28(%esp), %eax
	movl	$48, 4(%esp)
	movl	%esi, (%esp)
	subl	%ebx, %eax
	movl	%eax, 8(%esp)
	call	__ZN5CCore9PrintBase3putEcj
	movl	%ebx, 8(%esp)
	movl	%ebp, 4(%esp)
	movl	%esi, (%esp)
	call	__ZN5CCore9PrintBase3putEPKcj
	jmp	L456
L764:
	leal	177(%esp), %ebx
	movb	$1, 96(%esp)
	movl	%ebx, 188(%esp)
	movl	%ebx, 184(%esp)
	movl	%ebx, 180(%esp)
L518:
	movl	%ebx, %edi
	jmp	L516
L769:
	leal	177(%esp), %ebx
	movb	$1, 96(%esp)
	movl	%ebx, 188(%esp)
	movl	%ebx, 184(%esp)
	movl	%ebx, 180(%esp)
L461:
	movl	%ebx, %eax
	jmp	L459
L760:
	movl	%ebx, 180(%esp)
	movl	%ebx, %eax
	jmp	L459
L762:
	movl	%ebx, 180(%esp)
	movl	%ebx, %edi
	jmp	L516
L775:
	movl	180(%esp), %ebx
L469:
	leal	-1(%ebx), %eax
	xorl	%edx, %edx
	movl	%eax, 180(%esp)
	movl	%ebp, %eax
	divl	%ecx
	movzbl	LC1(%edx), %eax
	xorl	%edx, %edx
	movb	%al, -1(%ebx)
	movl	84(%esp), %ecx
	movl	%ebp, %eax
	divl	%ecx
	movl	%eax, %ebp
	testl	%eax, %eax
	jne	L775
	movl	180(%esp), %eax
	cmpl	$2, 92(%esp)
	movl	%eax, 184(%esp)
	je	L471
L587:
	cmpl	$1, 88(%esp)
	jne	L724
	leal	-1(%eax), %edx
	movl	%edx, 180(%esp)
	movb	$43, -1(%eax)
	movl	180(%esp), %eax
	jmp	L724
L474:
	leal	2(%ecx,%edx), %edx
	cmpl	%edx, 32(%esp)
	jbe	L776
	movl	32(%esp), %ecx
	subl	%edx, %ecx
	movl	%ecx, 32(%esp)
	movl	36(%esp), %ecx
	cmpl	$1, %ecx
	je	L487
	jnb	L725
	movl	40(%esp), %ecx
	movl	%eax, 4(%esp)
	movl	%esi, (%esp)
	movl	%ecx, 8(%esp)
	call	__ZN5CCore9PrintBase3putEPKcj
	movl	$0, 8(%esp)
	movl	$48, 4(%esp)
	movl	%esi, (%esp)
	call	__ZN5CCore9PrintBase3putEcj
	movl	8(%esi), %eax
	cmpl	12(%esi), %eax
	jnb	L777
L483:
	leal	1(%eax), %edx
	movl	%edx, 8(%esi)
	movb	$48, (%eax)
L482:
	movl	8(%esi), %eax
	cmpl	12(%esi), %eax
	jnb	L778
L484:
	leal	1(%eax), %edx
	movl	%edx, 8(%esi)
	movb	$46, (%eax)
L485:
	movl	28(%esp), %eax
	movl	$48, 4(%esp)
	movl	%esi, (%esp)
	subl	%ebx, %eax
	movl	%eax, 8(%esp)
	call	__ZN5CCore9PrintBase3putEcj
	movl	%ebx, 8(%esp)
	movl	%ebp, 4(%esp)
	movl	%esi, (%esp)
	call	__ZN5CCore9PrintBase3putEPKcj
L481:
	movl	32(%esp), %eax
	movl	$32, 4(%esp)
	movl	%esi, (%esp)
	movl	%eax, 8(%esp)
	call	__ZN5CCore9PrintBase3putEcj
	jmp	L456
L531:
	leal	2(%eax,%ecx), %edx
	cmpl	32(%esp), %edx
	jnb	L779
	movl	32(%esp), %ecx
	subl	%edx, %ecx
	movl	%ecx, 32(%esp)
	movl	36(%esp), %ecx
	cmpl	$1, %ecx
	je	L548
	jb	L536
	cmpl	$2, %ecx
	jne	L513
	movl	%eax, 8(%esp)
	movl	%edi, 4(%esp)
	movl	%ebp, (%esp)
	call	__ZN5CCore9PrintBase3putEPKcj
	movl	32(%esp), %eax
	movl	%eax, 8(%esp)
	jmp	L757
L508:
	movl	%ebp, 8(%esp)
	movl	%eax, 4(%esp)
	movl	%esi, (%esp)
	call	__ZN5CCore9PrintBase3putEPKcj
	jmp	L456
L565:
	movl	%esi, 8(%esp)
	movl	%edi, 4(%esp)
	movl	%ebp, (%esp)
	call	__ZN5CCore9PrintBase3putEPKcj
	jmp	L513
L509:
	movl	%edx, 8(%esp)
	movl	$32, 4(%esp)
	movl	%esi, (%esp)
	movl	%eax, 28(%esp)
	call	__ZN5CCore9PrintBase3putEcj
	movl	28(%esp), %eax
	movl	%ebp, 8(%esp)
	movl	%esi, (%esp)
	movl	%eax, 4(%esp)
	call	__ZN5CCore9PrintBase3putEPKcj
	jmp	L456
L566:
	movl	%eax, 8(%esp)
	movl	$32, 4(%esp)
	movl	%ebp, (%esp)
	call	__ZN5CCore9PrintBase3putEcj
	movl	%esi, 8(%esp)
	movl	%edi, 4(%esp)
	movl	%ebp, (%esp)
	call	__ZN5CCore9PrintBase3putEPKcj
	jmp	L513
L524:
	leal	-1(%ebx), %eax
	movl	%eax, 180(%esp)
	movb	$48, -1(%ebx)
	movl	180(%esp), %edi
	cmpl	$2, 92(%esp)
	movl	%edi, 184(%esp)
	jne	L726
	leal	-1(%edi), %eax
	movl	%eax, 180(%esp)
	movb	$120, -1(%edi)
	movl	180(%esp), %eax
	leal	-1(%eax), %edx
	movl	%edx, 180(%esp)
	movb	$48, -1(%eax)
	movl	180(%esp), %edi
	movl	188(%esp), %ebx
	jmp	L516
L462:
	leal	177(%esp), %ebx
	movb	%dl, 96(%esp)
	movl	%ebx, 188(%esp)
	movl	%ebx, 184(%esp)
	movl	%ebx, 180(%esp)
	cmpl	$16, %ecx
	je	L464
	movl	%ebx, %eax
	jmp	L459
L519:
	movb	%bl, 96(%esp)
	leal	177(%esp), %ebx
	movl	%ebx, 188(%esp)
	movl	%ebx, 184(%esp)
	movl	%ebx, 180(%esp)
	cmpl	$16, %esi
	je	L521
	movl	%ebx, %edi
	jmp	L516
L776:
	movl	%ecx, 8(%esp)
	movl	%eax, 4(%esp)
	movl	%esi, (%esp)
	call	__ZN5CCore9PrintBase3putEPKcj
	movl	$0, 8(%esp)
	movl	$48, 4(%esp)
	movl	%esi, (%esp)
	call	__ZN5CCore9PrintBase3putEcj
	jmp	L750
L779:
	movl	%eax, 8(%esp)
	movl	%edi, 4(%esp)
	movl	%ebp, (%esp)
	call	__ZN5CCore9PrintBase3putEPKcj
	movl	$0, 8(%esp)
L757:
	movl	$48, 4(%esp)
	movl	%ebp, (%esp)
	call	__ZN5CCore9PrintBase3putEcj
L753:
	movl	8(%ebp), %eax
	cmpl	12(%ebp), %eax
	jnb	L780
L585:
	leal	1(%eax), %edx
	movl	%edx, 8(%ebp)
	movb	$48, (%eax)
L561:
	movl	8(%ebp), %eax
	cmpl	12(%ebp), %eax
	jnb	L781
L562:
	leal	1(%eax), %edx
	movl	%edx, 8(%ebp)
	movb	$46, (%eax)
L563:
	movl	28(%esp), %eax
	movl	$48, 4(%esp)
	movl	%ebp, (%esp)
	subl	%ebx, %eax
	movl	%eax, 8(%esp)
	call	__ZN5CCore9PrintBase3putEcj
	movl	%ebx, 8(%esp)
	movl	%esi, 4(%esp)
	movl	%ebp, (%esp)
	call	__ZN5CCore9PrintBase3putEPKcj
	jmp	L513
L770:
	cmpl	$2, %ecx
	je	L465
	cmpl	$16, %ecx
	jne	L464
	movb	$104, 176(%esp)
	leal	176(%esp), %ebx
	jmp	L464
L765:
	cmpl	$2, %esi
	je	L522
	cmpl	$16, %esi
	jne	L521
	movb	$104, 176(%esp)
	leal	176(%esp), %ebx
	jmp	L521
L529:
	leal	-1(%edi), %eax
	movl	%eax, 180(%esp)
	movb	$43, -1(%edi)
	movl	180(%esp), %edi
	jmp	L726
L528:
	leal	-1(%edi), %eax
	movl	%eax, 180(%esp)
	movb	$120, -1(%edi)
	movl	180(%esp), %eax
	leal	-1(%eax), %edx
	movl	%edx, 180(%esp)
	movb	$48, -1(%eax)
	movl	180(%esp), %edi
	jmp	L592
L471:
	leal	-1(%eax), %edx
	movl	%edx, 180(%esp)
	movb	$120, -1(%eax)
	movl	180(%esp), %eax
	leal	-1(%eax), %edx
	movl	%edx, 180(%esp)
	movb	$48, -1(%eax)
	movl	180(%esp), %eax
	jmp	L587
L470:
	leal	-1(%eax), %edx
	movl	%edx, 180(%esp)
	movb	$120, -1(%eax)
	movl	180(%esp), %eax
	leal	-1(%eax), %edx
	movl	%edx, 180(%esp)
	movb	$48, -1(%eax)
	movl	180(%esp), %eax
	movl	188(%esp), %ebx
	jmp	L459
L536:
	movl	%eax, 8(%esp)
	movl	%edi, 4(%esp)
	movl	%ebp, (%esp)
	call	__ZN5CCore9PrintBase3putEPKcj
	movl	$0, 8(%esp)
	movl	$48, 4(%esp)
	movl	%ebp, (%esp)
	call	__ZN5CCore9PrintBase3putEcj
	movl	28(%esp), %eax
	cmpl	%eax, %ebx
	ja	L782
	movl	8(%ebp), %eax
	cmpl	12(%ebp), %eax
	jnb	L542
L544:
	leal	1(%eax), %edx
	movl	%edx, 8(%ebp)
	movb	$48, (%eax)
L543:
	movl	8(%ebp), %eax
	cmpl	12(%ebp), %eax
	jnb	L783
L545:
	leal	1(%eax), %edx
	movl	%edx, 8(%ebp)
	movb	$46, (%eax)
L546:
	movl	28(%esp), %eax
	movl	$48, 4(%esp)
	movl	%ebp, (%esp)
	subl	%ebx, %eax
	movl	%eax, 8(%esp)
	call	__ZN5CCore9PrintBase3putEcj
	movl	%ebx, 8(%esp)
	movl	%esi, 4(%esp)
	movl	%ebp, (%esp)
	call	__ZN5CCore9PrintBase3putEPKcj
L541:
	movl	32(%esp), %eax
	movl	$32, 4(%esp)
	movl	%ebp, (%esp)
	movl	%eax, 8(%esp)
	call	__ZN5CCore9PrintBase3putEcj
	jmp	L513
L568:
	movl	%esi, 8(%esp)
	movl	%edi, 4(%esp)
	movl	%ebp, (%esp)
	movl	%eax, 28(%esp)
	call	__ZN5CCore9PrintBase3putEPKcj
	movl	28(%esp), %eax
	movl	$32, 4(%esp)
	movl	%ebp, (%esp)
	movl	%eax, 8(%esp)
	call	__ZN5CCore9PrintBase3putEcj
	jmp	L513
L548:
	movl	%eax, 36(%esp)
	movl	32(%esp), %eax
	movl	$32, 4(%esp)
	movl	%ebp, (%esp)
	movl	%eax, 8(%esp)
	call	__ZN5CCore9PrintBase3putEcj
	movl	36(%esp), %eax
	movl	%edi, 4(%esp)
	movl	%ebp, (%esp)
	movl	%eax, 8(%esp)
	call	__ZN5CCore9PrintBase3putEPKcj
	movl	$0, 8(%esp)
	movl	$48, 4(%esp)
	movl	%ebp, (%esp)
	call	__ZN5CCore9PrintBase3putEcj
	movl	28(%esp), %eax
	cmpl	%eax, %ebx
	jbe	L753
	subl	%eax, %ebx
	jmp	L739
L487:
	movl	%eax, 36(%esp)
	movl	32(%esp), %eax
	movl	$32, 4(%esp)
	movl	%esi, (%esp)
	movl	%eax, 8(%esp)
	call	__ZN5CCore9PrintBase3putEcj
	movl	40(%esp), %eax
	movl	%esi, (%esp)
	movl	%eax, 8(%esp)
	movl	36(%esp), %eax
	movl	%eax, 4(%esp)
	call	__ZN5CCore9PrintBase3putEPKcj
	movl	$0, 8(%esp)
	jmp	L755
L511:
	movl	%ebp, 8(%esp)
	movl	%eax, 4(%esp)
	movl	%esi, (%esp)
	movl	%edx, 28(%esp)
	call	__ZN5CCore9PrintBase3putEPKcj
	movl	28(%esp), %edx
	movl	$32, 4(%esp)
	movl	%esi, (%esp)
	movl	%edx, 8(%esp)
	call	__ZN5CCore9PrintBase3putEcj
	jmp	L456
L771:
	movl	%eax, 4(%esp)
	movl	%ecx, 8(%esp)
	movl	%esi, (%esp)
	call	__ZN5CCore9PrintBase3putEPKcj
	movl	$0, 8(%esp)
	movl	$48, 4(%esp)
	movl	%esi, (%esp)
	call	__ZN5CCore9PrintBase3putEcj
	movl	%ebx, %eax
	subl	28(%esp), %eax
L733:
	movl	%eax, 8(%esp)
	movl	%ebp, 4(%esp)
	leal	0(%ebp,%eax), %ebx
	movl	%esi, (%esp)
	call	__ZN5CCore9PrintBase3putEPKcj
	movl	8(%esi), %eax
	cmpl	12(%esi), %eax
	jnb	L784
L581:
	leal	1(%eax), %edx
	movl	%edx, 8(%esi)
	movb	$46, (%eax)
L503:
	movl	28(%esp), %eax
	movl	%ebx, 4(%esp)
	movl	%esi, (%esp)
	movl	%eax, 8(%esp)
	call	__ZN5CCore9PrintBase3putEPKcj
	jmp	L456
L767:
	movl	%eax, 8(%esp)
	movl	%edi, 4(%esp)
	movl	%ebp, (%esp)
	call	__ZN5CCore9PrintBase3putEPKcj
	movl	$0, 8(%esp)
	jmp	L745
L772:
	movl	%ebx, %eax
	subl	%ecx, %eax
	jmp	L733
L773:
	movl	$1, 4(%esp)
	movl	%esi, (%esp)
	call	__ZN5CCore9PrintBase17flush_and_provideEj
	testb	%al, %al
	je	L504
	movl	8(%esi), %eax
	jmp	L579
L774:
	movl	$1, 4(%esp)
	movl	%esi, (%esp)
	call	__ZN5CCore9PrintBase17flush_and_provideEj
	testb	%al, %al
	je	L506
	movl	8(%esi), %eax
	jmp	L505
L781:
	movl	$1, 4(%esp)
	movl	%ebp, (%esp)
	call	__ZN5CCore9PrintBase17flush_and_provideEj
	testb	%al, %al
	je	L563
	movl	8(%ebp), %eax
	jmp	L562
L780:
	movl	$1, 4(%esp)
	movl	%ebp, (%esp)
	call	__ZN5CCore9PrintBase17flush_and_provideEj
	testb	%al, %al
	je	L561
	movl	8(%ebp), %eax
	jmp	L585
L768:
	movl	$1, 4(%esp)
	movl	%ebp, (%esp)
	call	__ZN5CCore9PrintBase17flush_and_provideEj
	testb	%al, %al
	je	L560
	movl	8(%ebp), %eax
	jmp	L583
L784:
	movl	$1, 4(%esp)
	movl	%esi, (%esp)
	call	__ZN5CCore9PrintBase17flush_and_provideEj
	testb	%al, %al
	je	L503
	movl	8(%esi), %eax
	jmp	L581
L588:
	movl	40(%esp), %ecx
	movl	%eax, 4(%esp)
	movl	%esi, (%esp)
	movl	%ecx, 8(%esp)
	call	__ZN5CCore9PrintBase3putEPKcj
	movl	$0, 8(%esp)
	movl	$48, 4(%esp)
	movl	%esi, (%esp)
	call	__ZN5CCore9PrintBase3putEcj
	movl	%ebx, %eax
	subl	28(%esp), %eax
	movl	%ebp, 4(%esp)
	movl	%esi, (%esp)
	movl	%eax, 8(%esp)
	leal	0(%ebp,%eax), %ebx
	call	__ZN5CCore9PrintBase3putEPKcj
	movl	8(%esi), %eax
	cmpl	12(%esi), %eax
	jnb	L785
L480:
	leal	1(%eax), %edx
	movl	%edx, 8(%esi)
	movb	$46, (%eax)
L479:
	movl	28(%esp), %eax
	movl	%ebx, 4(%esp)
	movl	%esi, (%esp)
	movl	%eax, 8(%esp)
	call	__ZN5CCore9PrintBase3putEPKcj
	jmp	L481
L782:
	subl	%eax, %ebx
	movl	%esi, 4(%esp)
	movl	%ebx, 8(%esp)
	leal	(%esi,%ebx), %edi
	movl	%ebp, (%esp)
	call	__ZN5CCore9PrintBase3putEPKcj
	movl	8(%ebp), %eax
	cmpl	12(%ebp), %eax
	jnb	L538
L540:
	leal	1(%eax), %edx
	movl	%edx, 8(%ebp)
	movb	$46, (%eax)
L539:
	movl	28(%esp), %eax
	movl	%edi, 4(%esp)
	movl	%ebp, (%esp)
	movl	%eax, 8(%esp)
	call	__ZN5CCore9PrintBase3putEPKcj
	jmp	L541
L465:
	movb	$98, 176(%esp)
	leal	176(%esp), %ebx
	jmp	L464
L522:
	movb	$98, 176(%esp)
	leal	176(%esp), %ebx
	jmp	L521
L542:
	movl	$1, 4(%esp)
	movl	%ebp, (%esp)
	call	__ZN5CCore9PrintBase17flush_and_provideEj
	testb	%al, %al
	je	L543
	movl	8(%ebp), %eax
	jmp	L544
L785:
	movl	$1, 4(%esp)
	movl	%esi, (%esp)
	call	__ZN5CCore9PrintBase17flush_and_provideEj
	testb	%al, %al
	je	L479
	movl	8(%esi), %eax
	jmp	L480
L783:
	movl	$1, 4(%esp)
	movl	%ebp, (%esp)
	call	__ZN5CCore9PrintBase17flush_and_provideEj
	testb	%al, %al
	je	L546
	movl	8(%ebp), %eax
	jmp	L545
L538:
	movl	$1, 4(%esp)
	movl	%ebp, (%esp)
	call	__ZN5CCore9PrintBase17flush_and_provideEj
	testb	%al, %al
	je	L539
	movl	8(%ebp), %eax
	jmp	L540
L778:
	movl	$1, 4(%esp)
	movl	%esi, (%esp)
	call	__ZN5CCore9PrintBase17flush_and_provideEj
	testb	%al, %al
	je	L485
	movl	8(%esi), %eax
	jmp	L484
L777:
	movl	$1, 4(%esp)
	movl	%esi, (%esp)
	call	__ZN5CCore9PrintBase17flush_and_provideEj
	testb	%al, %al
	je	L482
	movl	8(%esi), %eax
	jmp	L483
	.cfi_endproc
LFE4951:
	.section	.text$_ZN5CCore4Math11FastMulAlgoIN3App12Private_60054BaseELb0EE7FFTAlgo11UMulTempLenEj,"x"
	.linkonce discard
	.p2align 4,,15
	.globl	__ZN5CCore4Math11FastMulAlgoIN3App12Private_60054BaseELb0EE7FFTAlgo11UMulTempLenEj
	.def	__ZN5CCore4Math11FastMulAlgoIN3App12Private_60054BaseELb0EE7FFTAlgo11UMulTempLenEj;	.scl	2;	.type	32;	.endef
__ZN5CCore4Math11FastMulAlgoIN3App12Private_60054BaseELb0EE7FFTAlgo11UMulTempLenEj:
LFB4954:
	.cfi_startproc
	jmp	__ZN5CCore4Math11FastMulAlgoIN3App12Private_60054BaseELb0EE11UMulTempLenEj
	.cfi_endproc
LFE4954:
	.section	.text$_ZN5CCore4Math11FastMulAlgoIN3App12Private_60054BaseELb0EE11UMulTempLenEj,"x"
	.linkonce discard
	.p2align 4,,15
	.globl	__ZN5CCore4Math11FastMulAlgoIN3App12Private_60054BaseELb0EE11UMulTempLenEj
	.def	__ZN5CCore4Math11FastMulAlgoIN3App12Private_60054BaseELb0EE11UMulTempLenEj;	.scl	2;	.type	32;	.endef
__ZN5CCore4Math11FastMulAlgoIN3App12Private_60054BaseELb0EE11UMulTempLenEj:
LFB4526:
	.cfi_startproc
	pushl	%ebp
	.cfi_def_cfa_offset 8
	.cfi_offset 5, -8
	pushl	%edi
	.cfi_def_cfa_offset 12
	.cfi_offset 7, -12
	pushl	%esi
	.cfi_def_cfa_offset 16
	.cfi_offset 6, -16
	pushl	%ebx
	.cfi_def_cfa_offset 20
	.cfi_offset 3, -20
	subl	$44, %esp
	.cfi_def_cfa_offset 64
	movl	64(%esp), %ebx
	cmpl	$29, %ebx
	jbe	L796
	cmpl	$109, %ebx
	jbe	L800
	cmpl	$169, %ebx
	jbe	L801
	cmpl	$3999, %ebx
	jbe	L802
	movl	%ebx, (%esp)
	movl	$1, %esi
	movl	%ebx, %edi
	call	__ZN5CCore5Quick9ScanMSBitEj
	movl	$5, %edx
	addl	$1, %eax
	cmpl	$5, %eax
	cmovb	%edx, %eax
	addl	$5, %eax
	shrl	%eax
	leal	1(%eax), %edx
	movl	%edx, %ecx
	sall	%cl, %esi
	leal	-4(%eax), %ecx
	movl	$-1, %eax
	sall	%cl, %eax
	notl	%eax
	testl	%ebx, %eax
	setne	%al
	shrl	%cl, %edi
	movzbl	%al, %eax
	movl	%edi, %ecx
	addl	%eax, %ecx
	movl	%esi, %eax
	subl	%edx, %eax
	shrl	%eax
	cmpl	%eax, %ecx
	jbe	L803
	.p2align 4,,10
L792:
	leal	1(%edx), %edi
	movl	$1, %esi
	movl	$-1, %eax
	movl	%edi, %ecx
	sall	%cl, %esi
	leal	-4(%edx), %ecx
	movl	%esi, %ebp
	movl	%edi, %edx
	sall	%cl, %eax
	subl	%edi, %ebp
	notl	%eax
	shrl	%ebp
	testl	%ebx, %eax
	setne	%al
	movzbl	%al, %eax
	movl	%eax, 28(%esp)
	movl	%ebx, %eax
	shrl	%cl, %eax
	movl	%eax, %ecx
	movl	28(%esp), %eax
	addl	%ecx, %eax
	cmpl	%eax, %ebp
	jb	L792
L795:
	shrl	$5, %esi
	movl	$2, %ebx
	addl	$1, %esi
	movl	%esi, (%esp)
	addl	%esi, %esi
	call	__ZN5CCore4Math11FastMulAlgoIN3App12Private_60054BaseELb0EE7FFTAlgo11UMulTempLenEj
	movl	%edi, %ecx
	xorl	%edx, %edx
	sall	%cl, %ebx
	movl	%eax, %ebp
	notl	%eax
	addl	$1, %ebx
	divl	%ebx
	cmpl	%eax, %esi
	ja	L804
L794:
	imull	%esi, %ebx
	addl	$44, %esp
	.cfi_remember_state
	.cfi_def_cfa_offset 20
	leal	(%ebx,%ebp), %eax
	popl	%ebx
	.cfi_restore 3
	.cfi_def_cfa_offset 16
	popl	%esi
	.cfi_restore 6
	.cfi_def_cfa_offset 12
	popl	%edi
	.cfi_restore 7
	.cfi_def_cfa_offset 8
	popl	%ebp
	.cfi_restore 5
	.cfi_def_cfa_offset 4
	ret
	.p2align 4,,10
L796:
	.cfi_restore_state
	addl	$44, %esp
	.cfi_remember_state
	.cfi_def_cfa_offset 20
	xorl	%eax, %eax
	popl	%ebx
	.cfi_restore 3
	.cfi_def_cfa_offset 16
	popl	%esi
	.cfi_restore 6
	.cfi_def_cfa_offset 12
	popl	%edi
	.cfi_restore 7
	.cfi_def_cfa_offset 8
	popl	%ebp
	.cfi_restore 5
	.cfi_def_cfa_offset 4
	ret
	.p2align 4,,10
L800:
	.cfi_restore_state
	addl	$44, %esp
	.cfi_remember_state
	.cfi_def_cfa_offset 20
	popl	%ebx
	.cfi_restore 3
	.cfi_def_cfa_offset 16
	popl	%esi
	.cfi_restore 6
	.cfi_def_cfa_offset 12
	popl	%edi
	.cfi_restore 7
	.cfi_def_cfa_offset 8
	popl	%ebp
	.cfi_restore 5
	.cfi_def_cfa_offset 4
	jmp	__ZN5CCore4Math11FastMulAlgoIN3App12Private_60054BaseELb0EE16Toom22MulTempLenEj
	.p2align 4,,10
L802:
	.cfi_restore_state
	addl	$44, %esp
	.cfi_remember_state
	.cfi_def_cfa_offset 20
	popl	%ebx
	.cfi_restore 3
	.cfi_def_cfa_offset 16
	popl	%esi
	.cfi_restore 6
	.cfi_def_cfa_offset 12
	popl	%edi
	.cfi_restore 7
	.cfi_def_cfa_offset 8
	popl	%ebp
	.cfi_restore 5
	.cfi_def_cfa_offset 4
	jmp	__ZN5CCore4Math11FastMulAlgoIN3App12Private_60054BaseELb0EE16Toom44MulTempLenEj
	.p2align 4,,10
L801:
	.cfi_restore_state
	addl	$44, %esp
	.cfi_remember_state
	.cfi_def_cfa_offset 20
	popl	%ebx
	.cfi_restore 3
	.cfi_def_cfa_offset 16
	popl	%esi
	.cfi_restore 6
	.cfi_def_cfa_offset 12
	popl	%edi
	.cfi_restore 7
	.cfi_def_cfa_offset 8
	popl	%ebp
	.cfi_restore 5
	.cfi_def_cfa_offset 4
	jmp	__ZN5CCore4Math11FastMulAlgoIN3App12Private_60054BaseELb0EE16Toom33MulTempLenEj
	.p2align 4,,10
L804:
	.cfi_restore_state
	movl	%ebp, 8(%esp)
	movl	%ebx, 4(%esp)
	movl	%esi, (%esp)
	call	__ZN5CCore18GuardLenOfOverflowEjjj
	jmp	L794
	.p2align 4,,10
L803:
	movl	%edx, %edi
	jmp	L795
	.cfi_endproc
LFE4526:
	.section	.text$_ZN5CCore4Math11FastMulAlgoIN3App12Private_60054BaseELb0EE16Toom22MulTempLenEj,"x"
	.linkonce discard
	.p2align 4,,15
	.globl	__ZN5CCore4Math11FastMulAlgoIN3App12Private_60054BaseELb0EE16Toom22MulTempLenEj
	.def	__ZN5CCore4Math11FastMulAlgoIN3App12Private_60054BaseELb0EE16Toom22MulTempLenEj;	.scl	2;	.type	32;	.endef
__ZN5CCore4Math11FastMulAlgoIN3App12Private_60054BaseELb0EE16Toom22MulTempLenEj:
LFB4724:
	.cfi_startproc
	pushl	%esi
	.cfi_def_cfa_offset 8
	.cfi_offset 6, -8
	pushl	%ebx
	.cfi_def_cfa_offset 12
	.cfi_offset 3, -12
	subl	$20, %esp
	.cfi_def_cfa_offset 32
	movl	32(%esp), %edx
	movl	%edx, %esi
	shrl	%esi
	subl	%esi, %edx
	leal	(%edx,%edx), %ebx
	movl	%edx, (%esp)
	cmpl	%edx, %esi
	je	L809
	cmpl	$109, %edx
	jbe	L809
	call	__ZN5CCore4Math11FastMulAlgoIN3App12Private_60054BaseELb0EE11UMulTempLenEj
	movl	%esi, (%esp)
	addl	%eax, %ebx
	call	__ZN5CCore4Math11FastMulAlgoIN3App12Private_60054BaseELb0EE11UMulTempLenEj
	cmpl	%eax, %ebx
	cmovnb	%ebx, %eax
	addl	$20, %esp
	.cfi_remember_state
	.cfi_def_cfa_offset 12
	popl	%ebx
	.cfi_restore 3
	.cfi_def_cfa_offset 8
	popl	%esi
	.cfi_restore 6
	.cfi_def_cfa_offset 4
	ret
	.p2align 4,,10
L809:
	.cfi_restore_state
	call	__ZN5CCore4Math11FastMulAlgoIN3App12Private_60054BaseELb0EE11UMulTempLenEj
	addl	$20, %esp
	.cfi_def_cfa_offset 12
	addl	%ebx, %eax
	popl	%ebx
	.cfi_restore 3
	.cfi_def_cfa_offset 8
	popl	%esi
	.cfi_restore 6
	.cfi_def_cfa_offset 4
	ret
	.cfi_endproc
LFE4724:
	.section	.text$_ZN5CCore4Math11FastMulAlgoIN3App12Private_60054BaseELb0EE16Toom33MulTempLenEj,"x"
	.linkonce discard
	.p2align 4,,15
	.globl	__ZN5CCore4Math11FastMulAlgoIN3App12Private_60054BaseELb0EE16Toom33MulTempLenEj
	.def	__ZN5CCore4Math11FastMulAlgoIN3App12Private_60054BaseELb0EE16Toom33MulTempLenEj;	.scl	2;	.type	32;	.endef
__ZN5CCore4Math11FastMulAlgoIN3App12Private_60054BaseELb0EE16Toom33MulTempLenEj:
LFB4725:
	.cfi_startproc
	pushl	%ebp
	.cfi_def_cfa_offset 8
	.cfi_offset 5, -8
	pushl	%edi
	.cfi_def_cfa_offset 12
	.cfi_offset 7, -12
	pushl	%esi
	.cfi_def_cfa_offset 16
	.cfi_offset 6, -16
	movl	$-1431655765, %esi
	pushl	%ebx
	.cfi_def_cfa_offset 20
	.cfi_offset 3, -20
	subl	$28, %esp
	.cfi_def_cfa_offset 48
	movl	48(%esp), %edi
	leal	2(%edi), %edx
	movl	%edx, %eax
	mull	%esi
	shrl	%edx
	leal	1(%edx), %ebp
	movl	%edx, %esi
	leal	(%edx,%edx), %eax
	movl	%ebp, (%esp)
	subl	%eax, %edi
	call	__ZN5CCore4Math11FastMulAlgoIN3App12Private_60054BaseELb0EE11UMulTempLenEj
	movl	%esi, (%esp)
	movl	%eax, %ebx
	call	__ZN5CCore4Math11FastMulAlgoIN3App12Private_60054BaseELb0EE11UMulTempLenEj
	movl	%edi, (%esp)
	movl	%eax, %esi
	call	__ZN5CCore4Math11FastMulAlgoIN3App12Private_60054BaseELb0EE11UMulTempLenEj
	cmpl	%esi, %ebx
	cmovb	%esi, %ebx
	cmpl	%eax, %ebx
	cmovb	%eax, %ebx
	addl	$28, %esp
	.cfi_def_cfa_offset 20
	leal	0(%ebp,%ebp,4), %eax
	leal	(%ebx,%eax,2), %eax
	popl	%ebx
	.cfi_restore 3
	.cfi_def_cfa_offset 16
	popl	%esi
	.cfi_restore 6
	.cfi_def_cfa_offset 12
	popl	%edi
	.cfi_restore 7
	.cfi_def_cfa_offset 8
	popl	%ebp
	.cfi_restore 5
	.cfi_def_cfa_offset 4
	ret
	.cfi_endproc
LFE4725:
	.section	.text$_ZN5CCore4Math11FastMulAlgoIN3App12Private_60054BaseELb0EE16Toom44MulTempLenEj,"x"
	.linkonce discard
	.p2align 4,,15
	.globl	__ZN5CCore4Math11FastMulAlgoIN3App12Private_60054BaseELb0EE16Toom44MulTempLenEj
	.def	__ZN5CCore4Math11FastMulAlgoIN3App12Private_60054BaseELb0EE16Toom44MulTempLenEj;	.scl	2;	.type	32;	.endef
__ZN5CCore4Math11FastMulAlgoIN3App12Private_60054BaseELb0EE16Toom44MulTempLenEj:
LFB4726:
	.cfi_startproc
	pushl	%ebp
	.cfi_def_cfa_offset 8
	.cfi_offset 5, -8
	pushl	%edi
	.cfi_def_cfa_offset 12
	.cfi_offset 7, -12
	pushl	%esi
	.cfi_def_cfa_offset 16
	.cfi_offset 6, -16
	pushl	%ebx
	.cfi_def_cfa_offset 20
	.cfi_offset 3, -20
	subl	$28, %esp
	.cfi_def_cfa_offset 48
	movl	48(%esp), %edi
	leal	3(%edi), %esi
	shrl	$2, %esi
	leal	1(%esi), %ebp
	leal	(%esi,%esi,2), %eax
	movl	%ebp, (%esp)
	subl	%eax, %edi
	call	__ZN5CCore4Math11FastMulAlgoIN3App12Private_60054BaseELb0EE11UMulTempLenEj
	movl	%esi, (%esp)
	movl	%eax, %ebx
	call	__ZN5CCore4Math11FastMulAlgoIN3App12Private_60054BaseELb0EE11UMulTempLenEj
	movl	%edi, (%esp)
	movl	%eax, %esi
	call	__ZN5CCore4Math11FastMulAlgoIN3App12Private_60054BaseELb0EE11UMulTempLenEj
	leal	0(%ebp,%ebp,8), %edx
	cmpl	%esi, %ebx
	cmovb	%esi, %ebx
	cmpl	%eax, %ebx
	cmovb	%eax, %ebx
	addl	$28, %esp
	.cfi_def_cfa_offset 20
	leal	-2(%ebx,%edx,2), %eax
	popl	%ebx
	.cfi_restore 3
	.cfi_def_cfa_offset 16
	popl	%esi
	.cfi_restore 6
	.cfi_def_cfa_offset 12
	popl	%edi
	.cfi_restore 7
	.cfi_def_cfa_offset 8
	popl	%ebp
	.cfi_restore 5
	.cfi_def_cfa_offset 4
	ret
	.cfi_endproc
LFE4726:
	.section	.text$_ZN5CCore4Math11FastMulAlgoIN3App12Private_60054BaseELb0EE4TempC1Ej,"x"
	.linkonce discard
	.align 2
	.p2align 4,,15
	.globl	__ZN5CCore4Math11FastMulAlgoIN3App12Private_60054BaseELb0EE4TempC1Ej
	.def	__ZN5CCore4Math11FastMulAlgoIN3App12Private_60054BaseELb0EE4TempC1Ej;	.scl	2;	.type	32;	.endef
__ZN5CCore4Math11FastMulAlgoIN3App12Private_60054BaseELb0EE4TempC1Ej:
LFB5009:
	.cfi_startproc
	pushl	%esi
	.cfi_def_cfa_offset 8
	.cfi_offset 6, -8
	pushl	%ebx
	.cfi_def_cfa_offset 12
	.cfi_offset 3, -12
	subl	$20, %esp
	.cfi_def_cfa_offset 32
	movl	32(%esp), %esi
	movl	36(%esp), %ebx
	movl	%ebx, 1028(%esi)
	cmpl	$256, %ebx
	ja	L817
	movl	%esi, 1024(%esi)
	addl	$20, %esp
	.cfi_remember_state
	.cfi_def_cfa_offset 12
	popl	%ebx
	.cfi_restore 3
	.cfi_def_cfa_offset 8
	popl	%esi
	.cfi_restore 6
	.cfi_def_cfa_offset 4
	ret
	.p2align 4,,10
L817:
	.cfi_restore_state
	cmpl	$1073741823, %ebx
	ja	L822
L819:
	sall	$2, %ebx
	movl	%ebx, (%esp)
	call	__ZN5CCore17TaskMemStackAllocEj
	movl	%eax, 1024(%esi)
	addl	$20, %esp
	.cfi_remember_state
	.cfi_def_cfa_offset 12
	popl	%ebx
	.cfi_restore 3
	.cfi_def_cfa_offset 8
	popl	%esi
	.cfi_restore 6
	.cfi_def_cfa_offset 4
	ret
	.p2align 4,,10
L822:
	.cfi_restore_state
	movl	$0, 8(%esp)
	movl	$4, 4(%esp)
	movl	%ebx, (%esp)
	call	__ZN5CCore18GuardLenOfOverflowEjjj
	jmp	L819
	.cfi_endproc
LFE5009:
	.section	.text$_ZN5CCore6PrintfIRNS_9PrintBaseEJyEEEvOT_PKcDpRKT0_,"x"
	.linkonce discard
	.p2align 4,,15
	.globl	__ZN5CCore6PrintfIRNS_9PrintBaseEJyEEEvOT_PKcDpRKT0_
	.def	__ZN5CCore6PrintfIRNS_9PrintBaseEJyEEEvOT_PKcDpRKT0_;	.scl	2;	.type	32;	.endef
__ZN5CCore6PrintfIRNS_9PrintBaseEJyEEEvOT_PKcDpRKT0_:
LFB5100:
	.cfi_startproc
	pushl	%ebp
	.cfi_def_cfa_offset 8
	.cfi_offset 5, -8
	pushl	%edi
	.cfi_def_cfa_offset 12
	.cfi_offset 7, -12
	pushl	%esi
	.cfi_def_cfa_offset 16
	.cfi_offset 6, -16
	pushl	%ebx
	.cfi_def_cfa_offset 20
	.cfi_offset 3, -20
	subl	$204, %esp
	.cfi_def_cfa_offset 224
	movl	224(%esp), %eax
	movl	232(%esp), %ebx
	movl	%eax, 52(%esp)
	movl	228(%esp), %eax
	movl	%eax, 56(%esp)
	leal	52(%esp), %eax
	movl	%eax, (%esp)
	call	__ZN5CCore9PrintfDevIRNS_9PrintBaseEE4findEv
	testl	%eax, %eax
	je	L824
	movl	%eax, 4(%esp)
	leal	60(%esp), %eax
	movl	52(%esp), %ebp
	movl	%edx, 8(%esp)
	movl	%eax, (%esp)
	call	__ZN5CCore11IntPrintOptC1EPKcS2_
	movl	4(%ebx), %eax
	movl	64(%esp), %esi
	movl	76(%esp), %edx
	movl	(%ebx), %ecx
	movl	%eax, %edi
	movl	60(%esp), %eax
	movl	%esi, 84(%esp)
	movl	%edx, 88(%esp)
	movl	%eax, 32(%esp)
	movl	68(%esp), %eax
	movl	%eax, 28(%esp)
	movl	72(%esp), %eax
	movl	%eax, 36(%esp)
	movl	80(%esp), %eax
	movl	%eax, 92(%esp)
	testl	%esi, %esi
	jne	L825
	leal	177(%esp), %ebx
	orl	%edx, %eax
	setne	96(%esp)
	movl	%ebx, 188(%esp)
	movl	%ebx, 184(%esp)
	testl	%eax, %eax
	jne	L982
	leal	176(%esp), %eax
	movb	%cl, 176(%esp)
	movl	%eax, 180(%esp)
L827:
	movl	28(%esp), %edi
	testl	%edi, %edi
	jne	L983
L841:
	movl	32(%esp), %ecx
	movl	%ebx, %esi
	subl	%eax, %esi
	cmpl	%ecx, %esi
	jnb	L879
	movl	84(%esp), %edx
	movl	%ecx, %edi
	subl	%esi, %edi
	testl	%edx, %edx
	jne	L904
	cmpl	$2, 36(%esp)
	je	L880
L904:
	movl	36(%esp), %ecx
	cmpl	$1, %ecx
	je	L880
	jb	L882
	cmpl	$2, %ecx
	jne	L824
	movl	184(%esp), %esi
	movl	%eax, 4(%esp)
	movl	%ebp, (%esp)
	movl	%esi, %edx
	subl	%esi, %ebx
	subl	%eax, %edx
	movl	%edx, 8(%esp)
	call	__ZN5CCore9PrintBase3putEPKcj
	movl	%edi, 8(%esp)
	movl	$48, 4(%esp)
	movl	%ebp, (%esp)
	call	__ZN5CCore9PrintBase3putEcj
	movl	%ebx, 8(%esp)
	movl	%esi, 4(%esp)
	movl	%ebp, (%esp)
	call	__ZN5CCore9PrintBase3putEPKcj
	.p2align 4,,10
L824:
	movl	56(%esp), %ebx
L884:
	cmpb	$0, (%ebx)
	jne	L890
	jmp	L962
	.p2align 4,,10
L888:
	leal	1(%eax), %edx
	movl	%edx, 8(%esi)
	movb	$35, (%eax)
L889:
	addl	$2, %ebx
	movl	%ebx, 56(%esp)
L890:
	movl	%ebx, (%esp)
	movl	$35, 4(%esp)
	call	__ZN5CCore13PrintfDevBase4FindEPKcc
	movl	%eax, %ebx
	movl	56(%esp), %eax
	movl	%ebx, %edx
	subl	%eax, %edx
	movl	%eax, 4(%esp)
	movl	52(%esp), %eax
	movl	%edx, 8(%esp)
	movl	%eax, (%esp)
	call	__ZN5CCore9PrintBase3putEPKcj
	cmpb	$0, (%ebx)
	je	L886
	cmpb	$35, 1(%ebx)
	jne	L887
	movl	52(%esp), %esi
	movl	8(%esi), %eax
	cmpl	12(%esi), %eax
	jb	L888
	movl	$1, 4(%esp)
	movl	%esi, (%esp)
	call	__ZN5CCore9PrintBase17flush_and_provideEj
	testb	%al, %al
	je	L889
	movl	8(%esi), %eax
	jmp	L888
	.p2align 4,,10
L886:
	movl	%ebx, 56(%esp)
	cmpb	$0, (%ebx)
	jne	L890
L962:
	addl	$204, %esp
	.cfi_remember_state
	.cfi_def_cfa_offset 20
	popl	%ebx
	.cfi_restore 3
	.cfi_def_cfa_offset 16
	popl	%esi
	.cfi_restore 6
	.cfi_def_cfa_offset 12
	popl	%edi
	.cfi_restore 7
	.cfi_def_cfa_offset 8
	popl	%ebp
	.cfi_restore 5
	.cfi_def_cfa_offset 4
	ret
	.p2align 4,,10
L887:
	.cfi_restore_state
	addl	$1, %ebx
	movl	$59, 4(%esp)
	movl	%ebx, (%esp)
	call	__ZN5CCore13PrintfDevBase4FindEPKcc
	cmpb	$0, (%eax)
	je	L886
	leal	1(%eax), %ebx
	movl	%ebx, 56(%esp)
	jmp	L884
L825:
	leal	-2(%esi), %edx
	cmpl	$14, %edx
	ja	L984
	cmpl	$16, %esi
	setne	%dl
	cmpl	$2, %eax
	je	L830
	cmpl	$1, %eax
	sete	%bl
	andl	%ebx, %edx
	cmpl	$2, %esi
	setne	%bl
	andl	%ebx, %edx
	leal	177(%esp), %ebx
	movb	%dl, 96(%esp)
	movl	%ebx, 188(%esp)
	movl	%ebx, 184(%esp)
	movl	%ebx, 180(%esp)
	testb	%dl, %dl
	jne	L829
	cmpl	$1, %eax
	je	L985
L832:
	movl	%edi, %eax
	orl	%ecx, %edi
	je	L835
	movl	%ecx, %edx
	movl	%ebp, 44(%esp)
	movl	%ebx, %ecx
	xorl	%edi, %edi
	movl	%eax, %ebp
	movl	%edx, %ebx
	jmp	L837
L986:
	movl	180(%esp), %ecx
L837:
	leal	-1(%ecx), %eax
	movl	%esi, 8(%esp)
	movl	%edi, 12(%esp)
	xorl	%edi, %edi
	movl	%ebx, (%esp)
	movl	%ebp, 4(%esp)
	movl	%ecx, 40(%esp)
	movl	%eax, 180(%esp)
	call	___umoddi3
	movl	40(%esp), %ecx
	movzbl	LC1(%eax), %eax
	movb	%al, -1(%ecx)
	movl	84(%esp), %esi
	movl	%ebx, (%esp)
	movl	%ebp, 4(%esp)
	movl	%edi, 12(%esp)
	movl	%esi, 8(%esp)
	call	___udivdi3
	movl	%eax, %ebx
	movl	%edx, %eax
	movl	%edx, %ebp
	orl	%ebx, %eax
	jne	L986
	movl	180(%esp), %eax
	cmpl	$2, 92(%esp)
	movl	44(%esp), %ebp
	movl	%eax, 184(%esp)
	je	L839
L897:
	cmpl	$1, 88(%esp)
	je	L840
L964:
	movl	28(%esp), %edi
	movl	188(%esp), %ebx
	testl	%edi, %edi
	je	L841
L983:
	movl	184(%esp), %esi
	movl	%esi, %edx
	subl	%esi, %ebx
	subl	%eax, %edx
	cmpl	%edi, %ebx
	jbe	L842
	leal	1(%edx,%ebx), %ecx
	cmpl	32(%esp), %ecx
	jnb	L987
	movl	32(%esp), %edi
	subl	%ecx, %edi
	movl	36(%esp), %ecx
	cmpl	$1, %ecx
	je	L859
	jb	L847
	cmpl	$2, %ecx
	jne	L824
	movl	%edx, 8(%esp)
	movl	%eax, 4(%esp)
	movl	%ebp, (%esp)
	call	__ZN5CCore9PrintBase3putEPKcj
	movl	%edi, 8(%esp)
L975:
	movl	$48, 4(%esp)
	movl	%ebp, (%esp)
	call	__ZN5CCore9PrintBase3putEcj
	subl	28(%esp), %ebx
L970:
	movl	%ebx, 8(%esp)
	movl	%esi, 4(%esp)
	leal	(%esi,%ebx), %edi
	movl	%ebp, (%esp)
	call	__ZN5CCore9PrintBase3putEPKcj
	movl	8(%ebp), %eax
	cmpl	12(%ebp), %eax
	jnb	L988
L895:
	leal	1(%eax), %edx
	movl	%edx, 8(%ebp)
	movb	$46, (%eax)
L874:
	movl	28(%esp), %eax
	movl	%edi, 4(%esp)
	movl	%ebp, (%esp)
	movl	%eax, 8(%esp)
	call	__ZN5CCore9PrintBase3putEPKcj
	jmp	L824
L984:
	leal	177(%esp), %ebx
	movb	$1, 96(%esp)
	movl	%ebx, 188(%esp)
	movl	%ebx, 184(%esp)
	movl	%ebx, 180(%esp)
L829:
	movl	%ebx, %eax
	jmp	L827
L982:
	movl	%ebx, 180(%esp)
	movl	%ebx, %eax
	jmp	L827
L842:
	leal	2(%edx,%edi), %ecx
	cmpl	%ecx, 32(%esp)
	jbe	L989
	movl	32(%esp), %edi
	subl	%ecx, %edi
	movl	36(%esp), %ecx
	cmpl	$1, %ecx
	je	L859
	jb	L901
	cmpl	$2, %ecx
	jne	L824
	movl	%edx, 8(%esp)
	movl	%eax, 4(%esp)
	movl	%ebp, (%esp)
	call	__ZN5CCore9PrintBase3putEPKcj
	movl	%edi, 8(%esp)
	jmp	L979
L879:
	movl	%esi, 8(%esp)
	movl	%eax, 4(%esp)
	movl	%ebp, (%esp)
	call	__ZN5CCore9PrintBase3putEPKcj
	jmp	L824
L880:
	movl	%edi, 8(%esp)
	movl	$32, 4(%esp)
	movl	%ebp, (%esp)
	movl	%eax, 28(%esp)
	call	__ZN5CCore9PrintBase3putEcj
	movl	28(%esp), %eax
	movl	%esi, 8(%esp)
	movl	%ebp, (%esp)
	movl	%eax, 4(%esp)
	call	__ZN5CCore9PrintBase3putEPKcj
	jmp	L824
L835:
	leal	-1(%ebx), %eax
	movl	%eax, 180(%esp)
	movb	$48, -1(%ebx)
	movl	180(%esp), %eax
	cmpl	$2, 92(%esp)
	movl	%eax, 184(%esp)
	jne	L964
	leal	-1(%eax), %edx
	movl	%edx, 180(%esp)
	movb	$120, -1(%eax)
	movl	180(%esp), %eax
	leal	-1(%eax), %edx
	movl	%edx, 180(%esp)
	movb	$48, -1(%eax)
	movl	180(%esp), %eax
	movl	188(%esp), %ebx
	jmp	L827
L830:
	leal	177(%esp), %ebx
	movb	%dl, 96(%esp)
	movl	%ebx, 188(%esp)
	movl	%ebx, 184(%esp)
	movl	%ebx, 180(%esp)
	cmpl	$16, %esi
	je	L832
	movl	%ebx, %eax
	jmp	L827
L989:
	movl	%edx, 8(%esp)
	movl	%eax, 4(%esp)
	movl	%ebp, (%esp)
	call	__ZN5CCore9PrintBase3putEPKcj
	movl	$0, 8(%esp)
L979:
	movl	$48, 4(%esp)
	movl	%ebp, (%esp)
	call	__ZN5CCore9PrintBase3putEcj
L980:
	movl	8(%ebp), %eax
	cmpl	12(%ebp), %eax
	jnb	L990
L893:
	leal	1(%eax), %edx
	movl	%edx, 8(%ebp)
	movb	$48, (%eax)
L875:
	movl	8(%ebp), %eax
	cmpl	12(%ebp), %eax
	jnb	L991
L876:
	leal	1(%eax), %edx
	movl	%edx, 8(%ebp)
	movb	$46, (%eax)
L877:
	movl	28(%esp), %eax
	movl	$48, 4(%esp)
	movl	%ebp, (%esp)
	subl	%ebx, %eax
	movl	%eax, 8(%esp)
	call	__ZN5CCore9PrintBase3putEcj
	movl	%ebx, 8(%esp)
	movl	%esi, 4(%esp)
	movl	%ebp, (%esp)
	call	__ZN5CCore9PrintBase3putEPKcj
	jmp	L824
L985:
	cmpl	$2, %esi
	je	L833
	cmpl	$16, %esi
	jne	L832
	movb	$104, 176(%esp)
	leal	176(%esp), %ebx
	jmp	L832
L839:
	leal	-1(%eax), %edx
	movl	%edx, 180(%esp)
	movb	$120, -1(%eax)
	movl	180(%esp), %eax
	leal	-1(%eax), %edx
	movl	%edx, 180(%esp)
	movb	$48, -1(%eax)
	movl	180(%esp), %eax
	jmp	L897
L840:
	leal	-1(%eax), %edx
	movl	%edx, 180(%esp)
	movb	$43, -1(%eax)
	movl	180(%esp), %eax
	jmp	L964
L901:
	movl	%eax, 4(%esp)
	movl	%edx, 8(%esp)
	movl	%ebp, (%esp)
	call	__ZN5CCore9PrintBase3putEPKcj
	movl	$0, 8(%esp)
	movl	$48, 4(%esp)
	movl	%ebp, (%esp)
	call	__ZN5CCore9PrintBase3putEcj
	movl	8(%ebp), %eax
	cmpl	12(%ebp), %eax
	jnb	L992
L855:
	leal	1(%eax), %edx
	movl	%edx, 8(%ebp)
	movb	$48, (%eax)
L854:
	movl	8(%ebp), %eax
	cmpl	12(%ebp), %eax
	jnb	L993
L856:
	leal	1(%eax), %edx
	movl	%edx, 8(%ebp)
	movb	$46, (%eax)
L857:
	movl	28(%esp), %eax
	movl	$48, 4(%esp)
	movl	%ebp, (%esp)
	subl	%ebx, %eax
	movl	%eax, 8(%esp)
	call	__ZN5CCore9PrintBase3putEcj
	movl	%ebx, 8(%esp)
	movl	%esi, 4(%esp)
L965:
	movl	%ebp, (%esp)
	call	__ZN5CCore9PrintBase3putEPKcj
L852:
	movl	%edi, 8(%esp)
	movl	$32, 4(%esp)
	movl	%ebp, (%esp)
	call	__ZN5CCore9PrintBase3putEcj
	jmp	L824
L859:
	movl	%edi, 8(%esp)
	movl	$32, 4(%esp)
	movl	%ebp, (%esp)
	movl	%edx, 36(%esp)
	movl	%eax, 32(%esp)
	call	__ZN5CCore9PrintBase3putEcj
	movl	32(%esp), %eax
	movl	%ebp, (%esp)
	movl	36(%esp), %edx
	movl	%eax, 4(%esp)
	movl	%edx, 8(%esp)
	call	__ZN5CCore9PrintBase3putEPKcj
	movl	$0, 8(%esp)
	movl	$48, 4(%esp)
	movl	%ebp, (%esp)
	call	__ZN5CCore9PrintBase3putEcj
	movl	28(%esp), %eax
	cmpl	%eax, %ebx
	jbe	L980
	subl	%eax, %ebx
	jmp	L970
L882:
	movl	%esi, 8(%esp)
	movl	%eax, 4(%esp)
	jmp	L965
L987:
	movl	%edx, 8(%esp)
	movl	%eax, 4(%esp)
	movl	%ebp, (%esp)
	call	__ZN5CCore9PrintBase3putEPKcj
	movl	$0, 8(%esp)
	jmp	L975
L991:
	movl	$1, 4(%esp)
	movl	%ebp, (%esp)
	call	__ZN5CCore9PrintBase17flush_and_provideEj
	testb	%al, %al
	je	L877
	movl	8(%ebp), %eax
	jmp	L876
L990:
	movl	$1, 4(%esp)
	movl	%ebp, (%esp)
	call	__ZN5CCore9PrintBase17flush_and_provideEj
	testb	%al, %al
	je	L875
	movl	8(%ebp), %eax
	jmp	L893
L988:
	movl	$1, 4(%esp)
	movl	%ebp, (%esp)
	call	__ZN5CCore9PrintBase17flush_and_provideEj
	testb	%al, %al
	je	L874
	movl	8(%ebp), %eax
	jmp	L895
L847:
	movl	%edx, 8(%esp)
	movl	%eax, 4(%esp)
	movl	%ebp, (%esp)
	call	__ZN5CCore9PrintBase3putEPKcj
	movl	$0, 8(%esp)
	movl	$48, 4(%esp)
	movl	%ebp, (%esp)
	call	__ZN5CCore9PrintBase3putEcj
	movl	%ebx, %eax
	subl	28(%esp), %eax
	movl	%esi, 4(%esp)
	movl	%ebp, (%esp)
	movl	%eax, 8(%esp)
	leal	(%esi,%eax), %ebx
	call	__ZN5CCore9PrintBase3putEPKcj
	movl	8(%ebp), %eax
	cmpl	12(%ebp), %eax
	jnb	L849
L851:
	leal	1(%eax), %edx
	movl	%edx, 8(%ebp)
	movb	$46, (%eax)
L850:
	movl	28(%esp), %eax
	movl	%ebx, 4(%esp)
	movl	%ebp, (%esp)
	movl	%eax, 8(%esp)
	call	__ZN5CCore9PrintBase3putEPKcj
	jmp	L852
L833:
	movb	$98, 176(%esp)
	leal	176(%esp), %ebx
	jmp	L832
L849:
	movl	$1, 4(%esp)
	movl	%ebp, (%esp)
	call	__ZN5CCore9PrintBase17flush_and_provideEj
	testb	%al, %al
	je	L850
	movl	8(%ebp), %eax
	jmp	L851
L993:
	movl	$1, 4(%esp)
	movl	%ebp, (%esp)
	call	__ZN5CCore9PrintBase17flush_and_provideEj
	testb	%al, %al
	je	L857
	movl	8(%ebp), %eax
	jmp	L856
L992:
	movl	$1, 4(%esp)
	movl	%ebp, (%esp)
	call	__ZN5CCore9PrintBase17flush_and_provideEj
	testb	%al, %al
	je	L854
	movl	8(%ebp), %eax
	jmp	L855
	.cfi_endproc
LFE5100:
	.section	.text$_ZN5CCore6PutobjIRNS_9PrintBaseEJNS_6StrLenEEEEvOT_DpRKT0_,"x"
	.linkonce discard
	.p2align 4,,15
	.globl	__ZN5CCore6PutobjIRNS_9PrintBaseEJNS_6StrLenEEEEvOT_DpRKT0_
	.def	__ZN5CCore6PutobjIRNS_9PrintBaseEJNS_6StrLenEEEEvOT_DpRKT0_;	.scl	2;	.type	32;	.endef
__ZN5CCore6PutobjIRNS_9PrintBaseEJNS_6StrLenEEEEvOT_DpRKT0_:
LFB5101:
	.cfi_startproc
	pushl	%esi
	.cfi_def_cfa_offset 8
	.cfi_offset 6, -8
	pushl	%ebx
	.cfi_def_cfa_offset 12
	.cfi_offset 3, -12
	subl	$20, %esp
	.cfi_def_cfa_offset 32
	movl	36(%esp), %eax
	movl	(%eax), %ebx
	movl	4(%eax), %esi
	movl	%ebx, (%esp)
	movl	%esi, 4(%esp)
	call	__ZN5CCore7Utf8LenENS_6StrLenE
	movl	32(%esp), %eax
	movl	%esi, 8(%esp)
	movl	%ebx, 4(%esp)
	movl	%eax, (%esp)
	call	__ZN5CCore9PrintBase3putEPKcj
	addl	$20, %esp
	.cfi_def_cfa_offset 12
	popl	%ebx
	.cfi_restore 3
	.cfi_def_cfa_offset 8
	popl	%esi
	.cfi_restore 6
	.cfi_def_cfa_offset 4
	ret
	.cfi_endproc
LFE5101:
	.section	.text$_ZN5CCore4Math11FastMulAlgoIN3App12Private_60054BaseELb0EE7FFTAlgo4UMulEPjPKjS9_jNS5_10UnsafeWorkE,"x"
	.linkonce discard
	.p2align 4,,15
	.globl	__ZN5CCore4Math11FastMulAlgoIN3App12Private_60054BaseELb0EE7FFTAlgo4UMulEPjPKjS9_jNS5_10UnsafeWorkE
	.def	__ZN5CCore4Math11FastMulAlgoIN3App12Private_60054BaseELb0EE7FFTAlgo4UMulEPjPKjS9_jNS5_10UnsafeWorkE;	.scl	2;	.type	32;	.endef
__ZN5CCore4Math11FastMulAlgoIN3App12Private_60054BaseELb0EE7FFTAlgo4UMulEPjPKjS9_jNS5_10UnsafeWorkE:
LFB5135:
	.cfi_startproc
	jmp	__ZN5CCore4Math11FastMulAlgoIN3App12Private_60054BaseELb0EE4UMulEPjPKjS8_jNS5_10UnsafeWorkE
	.cfi_endproc
LFE5135:
	.section	.text$_ZN5CCore4Math6FFTMulINS0_11FastMulAlgoIN3App12Private_60054BaseELb0EE7FFTAlgoEE12InternalUMulEjjjPjPKjSB_jNS6_10UnsafeWorkE,"x"
	.linkonce discard
	.p2align 4,,15
	.globl	__ZN5CCore4Math6FFTMulINS0_11FastMulAlgoIN3App12Private_60054BaseELb0EE7FFTAlgoEE12InternalUMulEjjjPjPKjSB_jNS6_10UnsafeWorkE
	.def	__ZN5CCore4Math6FFTMulINS0_11FastMulAlgoIN3App12Private_60054BaseELb0EE7FFTAlgoEE12InternalUMulEjjjPjPKjSB_jNS6_10UnsafeWorkE;	.scl	2;	.type	32;	.endef
__ZN5CCore4Math6FFTMulINS0_11FastMulAlgoIN3App12Private_60054BaseELb0EE7FFTAlgoEE12InternalUMulEjjjPjPKjSB_jNS6_10UnsafeWorkE:
LFB5096:
	.cfi_startproc
	pushl	%ebp
	.cfi_def_cfa_offset 8
	.cfi_offset 5, -8
	pushl	%edi
	.cfi_def_cfa_offset 12
	.cfi_offset 7, -12
	pushl	%esi
	.cfi_def_cfa_offset 16
	.cfi_offset 6, -16
	pushl	%ebx
	.cfi_def_cfa_offset 20
	.cfi_offset 3, -20
	subl	$172, %esp
	.cfi_def_cfa_offset 192
	movl	220(%esp), %edi
	movl	$0, 60(%esp)
	movl	196(%esp), %ebx
	movl	200(%esp), %eax
	movl	%edi, 136(%esp)
	movl	196(%esp), %edi
	shrl	$5, %edi
	movl	%edi, 40(%esp)
	addl	$1, %edi
	imull	%edi, %ebx
	movl	%edi, 72(%esp)
	leal	(%ebx,%ebx), %esi
	movl	%ebx, 120(%esp)
	movl	%esi, 116(%esp)
	movl	220(%esp), %esi
	leal	0(,%ebx,8), %edx
	movl	%ebx, 84(%esp)
	addl	%edx, %esi
	addl	%esi, %edx
	movl	%esi, 92(%esp)
	movl	%eax, %esi
	shrl	$5, %eax
	leal	0(,%eax,4), %ebp
	andl	$31, %esi
	movl	%edx, 52(%esp)
	movl	%eax, %edx
	movl	%eax, 100(%esp)
	leal	0(,%edi,4), %eax
	movl	%esi, %ecx
	movl	%eax, 44(%esp)
	movl	$-1, %eax
	sall	%cl, %eax
	movl	%esi, 96(%esp)
	movl	216(%esp), %esi
	notl	%eax
	movl	%ebp, 56(%esp)
	movl	%eax, 112(%esp)
	leal	1(%edx), %eax
	xorl	%edx, %edx
	movl	%eax, 104(%esp)
	leal	4(%ebp), %eax
	movl	%edx, %ebx
	movl	%eax, 88(%esp)
	movl	220(%esp), %eax
	movl	%esi, 48(%esp)
	movl	%eax, 140(%esp)
	movl	%eax, %ebp
	movl	$32, %eax
	subl	96(%esp), %eax
	movl	%ebp, %edi
	movl	%eax, 108(%esp)
	movl	208(%esp), %esi
	jmp	L998
	.p2align 4,,10
L1219:
	movl	60(%esp), %ebp
	testl	%ebp, %ebp
	je	L1218
L1000:
	movl	48(%esp), %ecx
	cmpl	%ecx, 100(%esp)
	ja	L1003
	movl	60(%esp), %edx
	cmpl	%edx, 96(%esp)
	jnb	L1003
L1002:
	movl	96(%esp), %eax
	movl	72(%esp), %ecx
	subl	%ecx, 84(%esp)
	leal	(%eax,%ebx), %ebp
	movl	56(%esp), %eax
	addl	%esi, %eax
	movl	%eax, 64(%esp)
	testl	%ebx, %ebx
	je	L1004
	cmpl	$31, %ebp
	jbe	L1140
	movl	88(%esp), %eax
	leal	-32(%ebp), %ecx
	movl	%eax, 76(%esp)
	movl	104(%esp), %eax
	movl	%eax, 68(%esp)
L1005:
	movl	%eax, 8(%esp)
	movl	%esi, 4(%esp)
	movl	%edi, (%esp)
	movl	%ecx, 80(%esp)
	call	__ZN5CCore4Math15IntegerFastAlgo4CopyEPjPKjj
	movl	76(%esp), %ecx
	leal	(%edi,%ecx), %edx
	movl	80(%esp), %ecx
	testl	%ecx, %ecx
	je	L1006
	movl	$-1, %eax
	sall	%cl, %eax
	movl	76(%esp), %ecx
	notl	%eax
	andl	(%esi,%ecx), %eax
	movl	%eax, (%edx)
	movl	68(%esp), %eax
	movl	%ebx, 8(%esp)
	movl	%edi, (%esp)
	leal	1(%eax), %esi
	movl	%esi, 4(%esp)
	call	__ZN5CCore4Math15IntegerFastAlgo7URShiftEPjjj
	movl	40(%esp), %ecx
	leal	(%edi,%esi,4), %eax
	subl	68(%esp), %ecx
	movl	%eax, (%esp)
	movl	%ecx, 4(%esp)
	call	__ZN5CCore4Math15IntegerFastAlgo4NullEPjj
L1007:
	cmpl	$31, %ebp
	jbe	L1010
	addl	$4, 64(%esp)
	subl	$32, %ebp
L1010:
	movl	60(%esp), %esi
	cmpl	%esi, 96(%esp)
	jbe	L1009
	movl	100(%esp), %eax
	movl	%ebp, %ebx
	movl	108(%esp), %esi
	addl	%esi, 60(%esp)
	movl	64(%esp), %esi
	notl	%eax
	addl	%eax, 48(%esp)
L1012:
	addl	44(%esp), %edi
L998:
	movl	48(%esp), %edx
	movl	%edi, %eax
	testl	%edx, %edx
	je	L1219
	movl	48(%esp), %edx
	cmpl	%edx, 100(%esp)
	jb	L1002
	jmp	L1000
	.p2align 4,,10
L1004:
	movl	100(%esp), %ebx
	movl	%esi, 4(%esp)
	movl	%edi, (%esp)
	movl	%ebx, 8(%esp)
	call	__ZN5CCore4Math15IntegerFastAlgo4CopyEPjPKjj
	movl	56(%esp), %esi
	leal	(%esi,%edi), %eax
	testl	%ebp, %ebp
	jne	L1220
	movl	72(%esp), %edx
	movl	%eax, (%esp)
	subl	100(%esp), %edx
	movl	%edx, 4(%esp)
	call	__ZN5CCore4Math15IntegerFastAlgo4NullEPjj
L1009:
	movl	96(%esp), %esi
	movl	%ebp, %ebx
	subl	%esi, 60(%esp)
	movl	100(%esp), %esi
	subl	%esi, 48(%esp)
	movl	64(%esp), %esi
	jmp	L1012
	.p2align 4,,10
L1006:
	movl	68(%esp), %esi
	movl	%ebx, 8(%esp)
	movl	%edi, (%esp)
	movl	%edx, 76(%esp)
	movl	%esi, 4(%esp)
	call	__ZN5CCore4Math15IntegerFastAlgo7URShiftEPjjj
	movl	72(%esp), %eax
	movl	76(%esp), %edx
	subl	%esi, %eax
	movl	%eax, 4(%esp)
	movl	%edx, (%esp)
	call	__ZN5CCore4Math15IntegerFastAlgo4NullEPjj
	jmp	L1007
	.p2align 4,,10
L1140:
	movl	56(%esp), %eax
	movl	%ebp, %ecx
	movl	%eax, 76(%esp)
	movl	100(%esp), %eax
	movl	%eax, 68(%esp)
	jmp	L1005
L1220:
	movl	64(%esp), %ecx
	movl	112(%esp), %eax
	andl	(%ecx), %eax
	movl	%eax, (%edi,%esi)
	movl	%ebx, %eax
	notl	%eax
	addl	72(%esp), %eax
	movl	%eax, 4(%esp)
	movl	88(%esp), %eax
	addl	%edi, %eax
	movl	%eax, (%esp)
	call	__ZN5CCore4Math15IntegerFastAlgo4NullEPjj
	jmp	L1007
L1003:
	movl	%edi, %ebp
	movl	%esi, 208(%esp)
	movl	72(%esp), %edi
	movl	%ebx, %edx
	movl	48(%esp), %esi
	testl	%ebx, %ebx
	je	L1013
	movl	60(%esp), %ebx
	addl	%edx, %ebx
	cmpl	$31, %ebx
	ja	L1221
L1014:
	movl	208(%esp), %eax
	movl	%esi, 8(%esp)
	movl	%ebp, (%esp)
	movl	%edx, 60(%esp)
	movl	%eax, 4(%esp)
	call	__ZN5CCore4Math15IntegerFastAlgo4CopyEPjPKjj
	leal	0(,%esi,4), %eax
	testl	%ebx, %ebx
	leal	0(%ebp,%eax), %edx
	movl	%eax, 64(%esp)
	movl	%edx, 48(%esp)
	movl	60(%esp), %edx
	je	L1015
	movl	%ebx, %ecx
	movl	$-1, %eax
	movl	48(%esp), %ebx
	sall	%cl, %eax
	movl	208(%esp), %ecx
	notl	%eax
	andl	(%ecx,%esi,4), %eax
	movl	%eax, (%ebx)
	leal	1(%esi), %eax
	movl	%eax, 4(%esp)
	movl	%edx, 8(%esp)
	movl	%ebp, (%esp)
	call	__ZN5CCore4Math15IntegerFastAlgo7URShiftEPjjj
	movl	40(%esp), %ebx
	movl	64(%esp), %eax
	subl	%esi, %ebx
	leal	4(%ebp,%eax), %eax
	movl	%ebx, 4(%esp)
	movl	%eax, (%esp)
	call	__ZN5CCore4Math15IntegerFastAlgo4NullEPjj
L1016:
	movl	44(%esp), %eax
	subl	%edi, 84(%esp)
	addl	%ebp, %eax
L1001:
	movl	84(%esp), %ebx
	movl	%eax, (%esp)
	movl	%ebx, 4(%esp)
	call	__ZN5CCore4Math15IntegerFastAlgo4NullEPjj
	movl	120(%esp), %eax
	xorl	%edx, %edx
	movl	%edi, 72(%esp)
	movl	92(%esp), %ebp
	movl	$0, 60(%esp)
	movl	%edx, %ebx
	movl	216(%esp), %esi
	movl	%eax, 84(%esp)
	movl	$32, %eax
	subl	96(%esp), %eax
	movl	%ebp, 128(%esp)
	movl	%esi, 48(%esp)
	movl	212(%esp), %esi
	movl	%eax, 108(%esp)
	jmp	L1018
	.p2align 4,,10
L1223:
	movl	60(%esp), %edx
	testl	%edx, %edx
	je	L1222
L1020:
	movl	96(%esp), %edi
	cmpl	%edi, 60(%esp)
	jbe	L1023
	movl	100(%esp), %edi
	cmpl	%edi, 48(%esp)
	jb	L1023
L1022:
	movl	96(%esp), %eax
	movl	72(%esp), %ecx
	subl	%ecx, 84(%esp)
	leal	(%eax,%ebx), %edi
	movl	56(%esp), %eax
	addl	%esi, %eax
	movl	%eax, 64(%esp)
	testl	%ebx, %ebx
	je	L1024
	cmpl	$31, %edi
	jbe	L1141
	movl	88(%esp), %eax
	leal	-32(%edi), %ecx
	movl	%eax, 76(%esp)
	movl	104(%esp), %eax
	movl	%eax, 68(%esp)
L1025:
	movl	%eax, 8(%esp)
	movl	%esi, 4(%esp)
	movl	%ebp, (%esp)
	movl	%ecx, 80(%esp)
	call	__ZN5CCore4Math15IntegerFastAlgo4CopyEPjPKjj
	movl	76(%esp), %edx
	movl	80(%esp), %ecx
	addl	%ebp, %edx
	testl	%ecx, %ecx
	je	L1026
	movl	$-1, %eax
	sall	%cl, %eax
	movl	76(%esp), %ecx
	notl	%eax
	andl	(%esi,%ecx), %eax
	movl	%eax, (%edx)
	movl	68(%esp), %eax
	movl	%ebx, 8(%esp)
	movl	%ebp, (%esp)
	leal	1(%eax), %esi
	movl	%esi, 4(%esp)
	call	__ZN5CCore4Math15IntegerFastAlgo7URShiftEPjjj
	movl	40(%esp), %edx
	leal	0(%ebp,%esi,4), %eax
	subl	68(%esp), %edx
	movl	%eax, (%esp)
	movl	%edx, 4(%esp)
	call	__ZN5CCore4Math15IntegerFastAlgo4NullEPjj
L1027:
	cmpl	$31, %edi
	jbe	L1030
	addl	$4, 64(%esp)
	subl	$32, %edi
L1030:
	movl	96(%esp), %esi
	cmpl	%esi, 60(%esp)
	jnb	L1029
	movl	100(%esp), %eax
	movl	%edi, %ebx
	movl	108(%esp), %esi
	addl	%esi, 60(%esp)
	movl	64(%esp), %esi
	notl	%eax
	addl	%eax, 48(%esp)
L1032:
	addl	44(%esp), %ebp
L1018:
	movl	48(%esp), %ecx
	movl	%ebp, %eax
	testl	%ecx, %ecx
	je	L1223
	movl	100(%esp), %edi
	cmpl	%edi, 48(%esp)
	ja	L1022
	jmp	L1020
L1221:
	subl	$32, %ebx
	addl	$1, %esi
	jmp	L1014
	.p2align 4,,10
L1024:
	movl	100(%esp), %ebx
	movl	%esi, 4(%esp)
	movl	%ebp, (%esp)
	movl	%ebx, 8(%esp)
	call	__ZN5CCore4Math15IntegerFastAlgo4CopyEPjPKjj
	movl	56(%esp), %esi
	leal	0(%ebp,%esi), %eax
	testl	%edi, %edi
	jne	L1224
	movl	72(%esp), %edx
	movl	%eax, (%esp)
	subl	100(%esp), %edx
	movl	%edx, 4(%esp)
	call	__ZN5CCore4Math15IntegerFastAlgo4NullEPjj
	movl	96(%esp), %esi
L1029:
	movl	100(%esp), %ebx
	subl	%esi, 60(%esp)
	subl	%ebx, 48(%esp)
	movl	%edi, %ebx
	movl	64(%esp), %esi
	jmp	L1032
	.p2align 4,,10
L1026:
	movl	68(%esp), %esi
	movl	%ebx, 8(%esp)
	movl	%ebp, (%esp)
	movl	%edx, 76(%esp)
	movl	%esi, 4(%esp)
	call	__ZN5CCore4Math15IntegerFastAlgo7URShiftEPjjj
	movl	72(%esp), %eax
	movl	76(%esp), %edx
	subl	%esi, %eax
	movl	%eax, 4(%esp)
	movl	%edx, (%esp)
	call	__ZN5CCore4Math15IntegerFastAlgo4NullEPjj
	jmp	L1027
	.p2align 4,,10
L1141:
	movl	56(%esp), %eax
	movl	%edi, %ecx
	movl	%eax, 76(%esp)
	movl	100(%esp), %eax
	movl	%eax, 68(%esp)
	jmp	L1025
L1224:
	movl	64(%esp), %ecx
	movl	112(%esp), %eax
	andl	(%ecx), %eax
	movl	%eax, 0(%ebp,%esi)
	movl	%ebx, %eax
	notl	%eax
	addl	72(%esp), %eax
	movl	%eax, 4(%esp)
	movl	88(%esp), %eax
	addl	%ebp, %eax
	movl	%eax, (%esp)
	call	__ZN5CCore4Math15IntegerFastAlgo4NullEPjj
	jmp	L1027
L1023:
	movl	%esi, 212(%esp)
	movl	72(%esp), %edi
	movl	%ebx, %edx
	movl	48(%esp), %esi
	testl	%ebx, %ebx
	je	L1033
	movl	60(%esp), %ebx
	addl	%edx, %ebx
	cmpl	$31, %ebx
	jbe	L1034
	subl	$32, %ebx
	addl	$1, %esi
L1034:
	movl	212(%esp), %eax
	movl	%esi, 8(%esp)
	movl	%ebp, (%esp)
	movl	%edx, 56(%esp)
	movl	%eax, 4(%esp)
	call	__ZN5CCore4Math15IntegerFastAlgo4CopyEPjPKjj
	leal	0(,%esi,4), %eax
	testl	%ebx, %ebx
	movl	56(%esp), %edx
	leal	0(%ebp,%eax), %ecx
	movl	%eax, 60(%esp)
	movl	%ecx, 48(%esp)
	je	L1035
	movl	%ebx, %ecx
	movl	212(%esp), %ebx
	movl	$-1, %eax
	sall	%cl, %eax
	movl	48(%esp), %ecx
	notl	%eax
	andl	(%ebx,%esi,4), %eax
	movl	%eax, (%ecx)
	leal	1(%esi), %eax
	movl	%eax, 4(%esp)
	movl	%edx, 8(%esp)
	movl	%ebp, (%esp)
	call	__ZN5CCore4Math15IntegerFastAlgo7URShiftEPjjj
	movl	40(%esp), %ebx
	movl	60(%esp), %eax
	subl	%esi, %ebx
	leal	4(%ebp,%eax), %eax
	movl	%ebx, 4(%esp)
	movl	%eax, (%esp)
	call	__ZN5CCore4Math15IntegerFastAlgo4NullEPjj
L1036:
	movl	44(%esp), %eax
	subl	%edi, 84(%esp)
	addl	%ebp, %eax
L1021:
	movl	84(%esp), %esi
	movl	%eax, (%esp)
	movl	%esi, 4(%esp)
	call	__ZN5CCore4Math15IntegerFastAlgo4NullEPjj
	movl	120(%esp), %eax
	leal	0(,%eax,4), %ebx
	movl	%eax, 8(%esp)
	movl	220(%esp), %eax
	movl	%ebx, 80(%esp)
	addl	220(%esp), %ebx
	movl	%eax, 4(%esp)
	movl	%ebx, (%esp)
	movl	%ebx, 56(%esp)
	call	__ZN5CCore4Math15IntegerFastAlgo4CopyEPjPKjj
	movl	44(%esp), %eax
	movl	220(%esp), %esi
	addl	%eax, %esi
	cmpl	%esi, %ebx
	jbe	L1038
	leal	4(%eax), %ebx
	movl	40(%esp), %ecx
	subl	$4, %eax
	movl	$1, %ebp
	movl	%ebx, 84(%esp)
	movl	52(%esp), %ebx
	movl	%eax, 48(%esp)
	movl	%edi, 60(%esp)
	leal	(%ebx,%ecx,8), %edx
	addl	%eax, %ebx
	leal	-2(%ecx), %eax
	movl	%edx, 68(%esp)
	movl	%ebx, 72(%esp)
	movl	%eax, 76(%esp)
	jmp	L1045
	.p2align 4,,10
L1040:
	addl	44(%esp), %esi
	addl	$1, %ebp
	cmpl	%esi, 56(%esp)
	jbe	L1225
L1045:
	testl	%ebp, %ebp
	je	L1040
	movl	52(%esp), %edi
	movl	%ebp, %ebx
	movl	%ebp, %eax
	shrl	$5, %ebx
	andl	$31, %eax
	movl	%ebx, 4(%esp)
	movl	%eax, 64(%esp)
	movl	%edi, (%esp)
	leal	(%edi,%ebx,4), %edi
	call	__ZN5CCore4Math15IntegerFastAlgo4NullEPjj
	movl	60(%esp), %eax
	movl	%esi, 4(%esp)
	movl	%edi, (%esp)
	movl	%eax, 8(%esp)
	call	__ZN5CCore4Math15IntegerFastAlgo4CopyEPjPKjj
	movl	44(%esp), %ecx
	movl	64(%esp), %eax
	addl	%edi, %ecx
	testl	%eax, %eax
	je	L1041
	movl	%eax, 8(%esp)
	movl	60(%esp), %eax
	movl	%edi, (%esp)
	movl	%ecx, 64(%esp)
	movl	%eax, 4(%esp)
	call	__ZN5CCore4Math15IntegerFastAlgo7ULShiftEPjjj
	movl	64(%esp), %ecx
	movl	%eax, (%ecx)
	movl	40(%esp), %eax
	subl	%ebx, %eax
	movl	%eax, 4(%esp)
	movl	84(%esp), %eax
	leal	(%edi,%eax), %edx
	movl	%edx, (%esp)
	call	__ZN5CCore4Math15IntegerFastAlgo4NullEPjj
L1042:
	movl	40(%esp), %edi
	movl	%esi, (%esp)
	movl	52(%esp), %eax
	movl	%edi, 8(%esp)
	movl	%eax, 4(%esp)
	call	__ZN5CCore4Math15IntegerFastAlgo4CopyEPjPKjj
	movl	68(%esp), %eax
	movl	$2, 8(%esp)
	movl	%esi, (%esp)
	movl	%eax, 4(%esp)
	call	__ZN5CCore4Math15IntegerFastAlgo4UAddEPjPKjj
	movl	%eax, 8(%esp)
	movl	76(%esp), %eax
	movl	%eax, 4(%esp)
	leal	8(%esi), %eax
	movl	%eax, (%esp)
	call	__ZN5CCore4Math15IntegerFastAlgo8UAddUnitEPjjj
	movl	%edi, 8(%esp)
	movl	%eax, %ebx
	movl	72(%esp), %eax
	movl	%esi, (%esp)
	movl	%eax, 4(%esp)
	call	__ZN5CCore4Math15IntegerFastAlgo4USubEPjPKjj
	movl	48(%esp), %edi
	movl	%ebx, %edx
	subl	%eax, %edx
	movl	%edx, (%esi,%edi)
	cmpl	%ebx, %eax
	jbe	L1040
	testl	%edx, %edx
	jne	L1226
	movl	40(%esp), %eax
	movl	$1, 8(%esp)
	addl	$1, %ebp
	movl	%eax, 4(%esp)
	leal	4(%esi), %eax
	movl	%eax, (%esp)
	call	__ZN5CCore4Math15IntegerFastAlgo8UAddUnitEPjjj
	addl	44(%esp), %esi
	cmpl	%esi, 56(%esp)
	ja	L1045
L1225:
	movl	60(%esp), %edi
L1038:
	movl	92(%esp), %eax
	movl	80(%esp), %esi
	movl	120(%esp), %ebx
	movl	44(%esp), %ecx
	addl	%eax, %esi
	movl	%esi, 112(%esp)
	movl	%eax, %esi
	shrl	%ebx
	addl	%ecx, %esi
	movl	%ebx, 108(%esp)
	movl	%esi, 124(%esp)
	movl	%ebx, %esi
	cmpl	%ebx, %edi
	ja	L1046
	leal	-4(%ecx), %edx
	movl	%ecx, %ebx
	movl	40(%esp), %ecx
	addl	$4, %ebx
	movl	%edx, 48(%esp)
	movl	%ebx, 104(%esp)
	movl	52(%esp), %ebx
	leal	(%ebx,%ecx,8), %ecx
	addl	%edx, %ebx
	movl	%ecx, 76(%esp)
	movl	%ebx, 72(%esp)
	cmpl	220(%esp), %eax
	jbe	L1047
	movl	%esi, 88(%esp)
	movl	%esi, %eax
	movl	$2, 64(%esp)
	.p2align 4,,10
L1062:
	movl	220(%esp), %ebp
	sall	$2, %eax
	movl	%eax, 56(%esp)
	.p2align 4,,10
L1061:
	movl	56(%esp), %eax
	leal	0(%ebp,%eax), %esi
	movl	%esi, 60(%esp)
	cmpl	%ebp, %esi
	jbe	L1142
	movl	40(%esp), %eax
	xorl	%ebx, %ebx
	subl	$1, %eax
	movl	%eax, 84(%esp)
	jmp	L1060
	.p2align 4,,10
L1049:
	movl	52(%esp), %eax
	movl	%edi, 8(%esp)
	movl	%ebp, (%esp)
	movl	%eax, 4(%esp)
	call	__ZN5CCore4Math15IntegerFastAlgo4USubEPjPKjj
	testl	%eax, %eax
	jne	L1227
L1052:
	testl	%ebx, %ebx
	jne	L1228
L1055:
	addl	44(%esp), %ebp
	addl	64(%esp), %ebx
	cmpl	%ebp, 60(%esp)
	jbe	L1212
L1231:
	movl	56(%esp), %eax
	leal	0(%ebp,%eax), %esi
L1060:
	movl	52(%esp), %eax
	movl	%edi, 8(%esp)
	movl	%esi, 4(%esp)
	movl	%eax, (%esp)
	call	__ZN5CCore4Math15IntegerFastAlgo4CopyEPjPKjj
	movl	%edi, 8(%esp)
	movl	%ebp, 4(%esp)
	movl	%esi, (%esp)
	call	__ZN5CCore4Math15IntegerFastAlgo4UAddEPjPKjj
	testl	%eax, %eax
	je	L1049
	movl	$1, 156(%esp)
	movl	48(%esp), %edx
	movl	(%esi,%edx), %eax
	movl	$0, (%esi,%edx)
	movl	$2, 8(%esp)
	movl	%esi, (%esp)
	movl	%eax, 152(%esp)
	leal	152(%esp), %eax
	movl	%eax, 4(%esp)
	call	__ZN5CCore4Math15IntegerFastAlgo4USubEPjPKjj
	movl	%eax, 8(%esp)
	movl	84(%esp), %eax
	movl	%eax, 4(%esp)
	movl	56(%esp), %eax
	leal	8(%ebp,%eax), %eax
	movl	%eax, (%esp)
	call	__ZN5CCore4Math15IntegerFastAlgo8USubUnitEPjjj
	testl	%eax, %eax
	je	L1049
	movl	48(%esp), %edx
	movl	(%esi,%edx), %eax
	testl	%eax, %eax
	jne	L1229
	movl	40(%esp), %eax
	movl	$1, 8(%esp)
	movl	%eax, 4(%esp)
	movl	56(%esp), %eax
	leal	4(%ebp,%eax), %eax
	movl	%eax, (%esp)
	call	__ZN5CCore4Math15IntegerFastAlgo8UAddUnitEPjjj
	jmp	L1049
L1041:
	movl	60(%esp), %eax
	movl	%ecx, (%esp)
	subl	%ebx, %eax
	movl	%eax, 4(%esp)
	call	__ZN5CCore4Math15IntegerFastAlgo4NullEPjj
	jmp	L1042
	.p2align 4,,10
L1228:
	movl	%ebx, %eax
	movl	%ebx, %esi
	andl	$31, %eax
	shrl	$5, %esi
	movl	%eax, 80(%esp)
	movl	52(%esp), %eax
	movl	%esi, 4(%esp)
	movl	%eax, (%esp)
	call	__ZN5CCore4Math15IntegerFastAlgo4NullEPjj
	movl	52(%esp), %eax
	movl	%edi, 8(%esp)
	movl	%ebp, 4(%esp)
	leal	(%eax,%esi,4), %edx
	movl	%edx, (%esp)
	movl	%edx, 68(%esp)
	call	__ZN5CCore4Math15IntegerFastAlgo4CopyEPjPKjj
	movl	44(%esp), %eax
	movl	68(%esp), %edx
	leal	(%edx,%eax), %ecx
	movl	80(%esp), %eax
	testl	%eax, %eax
	je	L1056
	movl	%edx, (%esp)
	movl	%eax, 8(%esp)
	movl	%edi, 4(%esp)
	movl	%ecx, 80(%esp)
	call	__ZN5CCore4Math15IntegerFastAlgo7ULShiftEPjjj
	movl	80(%esp), %ecx
	movl	68(%esp), %edx
	addl	104(%esp), %edx
	movl	%eax, (%ecx)
	movl	40(%esp), %eax
	movl	%edx, (%esp)
	subl	%esi, %eax
	movl	%eax, 4(%esp)
	call	__ZN5CCore4Math15IntegerFastAlgo4NullEPjj
L1057:
	movl	40(%esp), %esi
	movl	%ebp, (%esp)
	movl	52(%esp), %eax
	movl	%esi, 8(%esp)
	movl	%eax, 4(%esp)
	call	__ZN5CCore4Math15IntegerFastAlgo4CopyEPjPKjj
	movl	76(%esp), %eax
	movl	$2, 8(%esp)
	movl	%ebp, (%esp)
	movl	%eax, 4(%esp)
	call	__ZN5CCore4Math15IntegerFastAlgo4UAddEPjPKjj
	movl	%esi, 40(%esp)
	movl	%eax, 8(%esp)
	leal	-2(%esi), %eax
	movl	%eax, 4(%esp)
	leal	8(%ebp), %eax
	movl	%eax, (%esp)
	call	__ZN5CCore4Math15IntegerFastAlgo8UAddUnitEPjjj
	movl	%ebp, (%esp)
	movl	%eax, %esi
	movl	40(%esp), %eax
	movl	%eax, 8(%esp)
	movl	72(%esp), %eax
	movl	%eax, 4(%esp)
	call	__ZN5CCore4Math15IntegerFastAlgo4USubEPjPKjj
	movl	48(%esp), %ecx
	movl	%esi, %edx
	subl	%eax, %edx
	movl	%edx, 0(%ebp,%ecx)
	cmpl	%esi, %eax
	jbe	L1055
	testl	%edx, %edx
	jne	L1230
	movl	40(%esp), %eax
	movl	$1, 8(%esp)
	movl	%eax, 4(%esp)
	leal	4(%ebp), %eax
	movl	%eax, (%esp)
	call	__ZN5CCore4Math15IntegerFastAlgo8UAddUnitEPjjj
	addl	44(%esp), %ebp
	addl	64(%esp), %ebx
	cmpl	%ebp, 60(%esp)
	ja	L1231
	.p2align 4,,10
L1212:
	addl	56(%esp), %ebp
L1048:
	cmpl	%ebp, 92(%esp)
	ja	L1061
	shrl	88(%esp)
	movl	88(%esp), %eax
	sall	64(%esp)
	cmpl	%eax, %edi
	jbe	L1062
L1047:
	movl	120(%esp), %eax
	movl	112(%esp), %esi
	movl	%eax, 8(%esp)
	movl	92(%esp), %eax
	movl	%esi, (%esp)
	movl	%eax, 4(%esp)
	call	__ZN5CCore4Math15IntegerFastAlgo4CopyEPjPKjj
	cmpl	124(%esp), %esi
	jbe	L1064
L1137:
	movl	40(%esp), %eax
	movl	$1, %ebp
	movl	%edi, 56(%esp)
	movl	124(%esp), %ebx
	subl	$2, %eax
	movl	%eax, 64(%esp)
	jmp	L1072
	.p2align 4,,10
L1066:
	addl	44(%esp), %ebx
	addl	$1, %ebp
	cmpl	112(%esp), %ebx
	jnb	L1232
L1072:
	testl	%ebp, %ebp
	je	L1066
	movl	52(%esp), %edi
	movl	%ebp, %esi
	movl	%ebp, %eax
	shrl	$5, %esi
	andl	$31, %eax
	movl	%esi, 4(%esp)
	movl	%eax, 60(%esp)
	movl	%edi, (%esp)
	leal	(%edi,%esi,4), %edi
	call	__ZN5CCore4Math15IntegerFastAlgo4NullEPjj
	movl	56(%esp), %eax
	movl	%ebx, 4(%esp)
	movl	%edi, (%esp)
	movl	%eax, 8(%esp)
	call	__ZN5CCore4Math15IntegerFastAlgo4CopyEPjPKjj
	movl	44(%esp), %ecx
	movl	60(%esp), %eax
	addl	%edi, %ecx
	testl	%eax, %eax
	je	L1067
	movl	%eax, 8(%esp)
	movl	56(%esp), %eax
	movl	%edi, (%esp)
	movl	%ecx, 60(%esp)
	movl	%eax, 4(%esp)
	call	__ZN5CCore4Math15IntegerFastAlgo7ULShiftEPjjj
	movl	60(%esp), %ecx
	movl	%eax, (%ecx)
	movl	40(%esp), %eax
	subl	%esi, %eax
	movl	%eax, 4(%esp)
	movl	104(%esp), %eax
	leal	(%edi,%eax), %edx
	movl	%edx, (%esp)
	call	__ZN5CCore4Math15IntegerFastAlgo4NullEPjj
L1068:
	movl	40(%esp), %edi
	movl	%ebx, (%esp)
	movl	52(%esp), %eax
	movl	%edi, 8(%esp)
	movl	%eax, 4(%esp)
	call	__ZN5CCore4Math15IntegerFastAlgo4CopyEPjPKjj
	movl	76(%esp), %eax
	movl	$2, 8(%esp)
	movl	%ebx, (%esp)
	movl	%eax, 4(%esp)
	call	__ZN5CCore4Math15IntegerFastAlgo4UAddEPjPKjj
	movl	%eax, 8(%esp)
	movl	64(%esp), %eax
	movl	%eax, 4(%esp)
	leal	8(%ebx), %eax
	movl	%eax, (%esp)
	call	__ZN5CCore4Math15IntegerFastAlgo8UAddUnitEPjjj
	movl	%edi, 8(%esp)
	movl	%eax, %esi
	movl	72(%esp), %eax
	movl	%ebx, (%esp)
	movl	%eax, 4(%esp)
	call	__ZN5CCore4Math15IntegerFastAlgo4USubEPjPKjj
	movl	48(%esp), %edi
	movl	%esi, %edx
	subl	%eax, %edx
	movl	%edx, (%ebx,%edi)
	cmpl	%esi, %eax
	jbe	L1066
	testl	%edx, %edx
	jne	L1233
	movl	40(%esp), %eax
	movl	$1, 8(%esp)
	addl	$1, %ebp
	movl	%eax, 4(%esp)
	leal	4(%ebx), %eax
	movl	%eax, (%esp)
	call	__ZN5CCore4Math15IntegerFastAlgo8UAddUnitEPjjj
	addl	44(%esp), %ebx
	cmpl	112(%esp), %ebx
	jb	L1072
L1232:
	movl	56(%esp), %edi
	cmpl	108(%esp), %edi
	ja	L1063
L1064:
	movl	52(%esp), %ebp
	movl	92(%esp), %eax
	cmpl	%eax, %ebp
	jbe	L1063
	movl	108(%esp), %eax
	movl	$2, 68(%esp)
	.p2align 4,,10
L1089:
	movl	92(%esp), %ebx
	sall	$2, %eax
	movl	%ebp, %esi
	movl	%eax, 60(%esp)
	.p2align 4,,10
L1073:
	movl	60(%esp), %eax
	leal	(%ebx,%eax), %ebp
	movl	%ebp, 64(%esp)
	cmpl	%ebx, %ebp
	jbe	L1143
	movl	40(%esp), %eax
	movl	$0, 56(%esp)
	subl	$1, %eax
	movl	%eax, 88(%esp)
	jmp	L1088
	.p2align 4,,10
L1077:
	movl	%edi, 8(%esp)
	movl	%esi, 4(%esp)
	movl	%ebx, (%esp)
	call	__ZN5CCore4Math15IntegerFastAlgo4USubEPjPKjj
	testl	%eax, %eax
	jne	L1234
L1080:
	movl	56(%esp), %eax
	testl	%eax, %eax
	jne	L1235
L1083:
	movl	68(%esp), %ecx
	addl	44(%esp), %ebx
	addl	%ecx, 56(%esp)
	cmpl	%ebx, 64(%esp)
	jbe	L1214
	movl	60(%esp), %eax
	leal	(%ebx,%eax), %ebp
L1088:
	movl	%edi, 8(%esp)
	movl	%ebp, 4(%esp)
	movl	%esi, (%esp)
	call	__ZN5CCore4Math15IntegerFastAlgo4CopyEPjPKjj
	movl	%edi, 8(%esp)
	movl	%ebx, 4(%esp)
	movl	%ebp, (%esp)
	call	__ZN5CCore4Math15IntegerFastAlgo4UAddEPjPKjj
	testl	%eax, %eax
	je	L1077
	movl	$1, 156(%esp)
	movl	48(%esp), %ecx
	movl	0(%ebp,%ecx), %eax
	movl	$0, 0(%ebp,%ecx)
	movl	$2, 8(%esp)
	movl	%ebp, (%esp)
	movl	%eax, 152(%esp)
	leal	152(%esp), %eax
	movl	%eax, 4(%esp)
	call	__ZN5CCore4Math15IntegerFastAlgo4USubEPjPKjj
	movl	%eax, 8(%esp)
	movl	88(%esp), %eax
	movl	%eax, 4(%esp)
	movl	60(%esp), %eax
	leal	8(%ebx,%eax), %eax
	movl	%eax, (%esp)
	call	__ZN5CCore4Math15IntegerFastAlgo8USubUnitEPjjj
	testl	%eax, %eax
	je	L1077
	movl	48(%esp), %edx
	movl	0(%ebp,%edx), %eax
	testl	%eax, %eax
	jne	L1236
	movl	40(%esp), %eax
	movl	$1, 8(%esp)
	movl	%eax, 4(%esp)
	movl	60(%esp), %eax
	leal	4(%ebx,%eax), %eax
	movl	%eax, (%esp)
	call	__ZN5CCore4Math15IntegerFastAlgo8UAddUnitEPjjj
	jmp	L1077
	.p2align 4,,10
L1227:
	movl	48(%esp), %edx
	movl	0(%ebp,%edx), %eax
	testl	%eax, %eax
	jne	L1237
	movl	40(%esp), %eax
	movl	$1, 8(%esp)
	movl	%eax, 4(%esp)
	leal	4(%ebp), %eax
	movl	%eax, (%esp)
	call	__ZN5CCore4Math15IntegerFastAlgo8UAddUnitEPjjj
	jmp	L1052
	.p2align 4,,10
L1056:
	movl	%edi, %eax
	movl	%ecx, (%esp)
	subl	%esi, %eax
	movl	%eax, 4(%esp)
	call	__ZN5CCore4Math15IntegerFastAlgo4NullEPjj
	jmp	L1057
	.p2align 4,,10
L1237:
	negl	%eax
	movl	$0, 0(%ebp,%edx)
	movl	%eax, 8(%esp)
	movl	%edi, 4(%esp)
	movl	%ebp, (%esp)
	call	__ZN5CCore4Math15IntegerFastAlgo8UAddUnitEPjjj
	jmp	L1052
	.p2align 4,,10
L1230:
	negl	%edx
	movl	$0, 0(%ebp,%ecx)
	movl	%edx, 8(%esp)
	movl	%edi, 4(%esp)
	movl	%ebp, (%esp)
	call	__ZN5CCore4Math15IntegerFastAlgo8UAddUnitEPjjj
	jmp	L1055
	.p2align 4,,10
L1229:
	negl	%eax
	movl	$0, (%esi,%edx)
	movl	%eax, 8(%esp)
	movl	%edi, 4(%esp)
	movl	%esi, (%esp)
	call	__ZN5CCore4Math15IntegerFastAlgo8UAddUnitEPjjj
	jmp	L1049
	.p2align 4,,10
L1142:
	movl	%esi, %ebp
	jmp	L1048
L1067:
	movl	56(%esp), %eax
	movl	%ecx, (%esp)
	subl	%esi, %eax
	movl	%eax, 4(%esp)
	call	__ZN5CCore4Math15IntegerFastAlgo4NullEPjj
	jmp	L1068
	.p2align 4,,10
L1235:
	movl	56(%esp), %eax
	movl	%esi, (%esp)
	movl	%eax, %ebp
	andl	$31, %eax
	shrl	$5, %ebp
	movl	%eax, 84(%esp)
	movl	%ebp, 4(%esp)
	call	__ZN5CCore4Math15IntegerFastAlgo4NullEPjj
	leal	(%esi,%ebp,4), %edx
	movl	%edi, 8(%esp)
	movl	%edx, (%esp)
	movl	%ebx, 4(%esp)
	movl	%edx, 80(%esp)
	call	__ZN5CCore4Math15IntegerFastAlgo4CopyEPjPKjj
	movl	44(%esp), %eax
	movl	80(%esp), %edx
	leal	(%edx,%eax), %ecx
	movl	84(%esp), %eax
	testl	%eax, %eax
	je	L1084
	movl	%edx, (%esp)
	movl	%eax, 8(%esp)
	movl	%edi, 4(%esp)
	movl	%ecx, 84(%esp)
	call	__ZN5CCore4Math15IntegerFastAlgo7ULShiftEPjjj
	movl	84(%esp), %ecx
	movl	80(%esp), %edx
	addl	104(%esp), %edx
	movl	%eax, (%ecx)
	movl	40(%esp), %eax
	movl	%edx, (%esp)
	subl	%ebp, %eax
	movl	%eax, 4(%esp)
	call	__ZN5CCore4Math15IntegerFastAlgo4NullEPjj
L1085:
	movl	40(%esp), %ebp
	movl	%esi, 4(%esp)
	movl	%ebx, (%esp)
	movl	%ebp, 8(%esp)
	call	__ZN5CCore4Math15IntegerFastAlgo4CopyEPjPKjj
	movl	76(%esp), %eax
	movl	$2, 8(%esp)
	movl	%ebx, (%esp)
	movl	%eax, 4(%esp)
	call	__ZN5CCore4Math15IntegerFastAlgo4UAddEPjPKjj
	movl	%ebp, 40(%esp)
	movl	%eax, 8(%esp)
	leal	-2(%ebp), %eax
	movl	%eax, 4(%esp)
	leal	8(%ebx), %eax
	movl	%eax, (%esp)
	call	__ZN5CCore4Math15IntegerFastAlgo8UAddUnitEPjjj
	movl	%ebx, (%esp)
	movl	%eax, %ebp
	movl	40(%esp), %eax
	movl	%eax, 8(%esp)
	movl	72(%esp), %eax
	movl	%eax, 4(%esp)
	call	__ZN5CCore4Math15IntegerFastAlgo4USubEPjPKjj
	movl	48(%esp), %ecx
	movl	%ebp, %edx
	subl	%eax, %edx
	movl	%edx, (%ebx,%ecx)
	cmpl	%ebp, %eax
	jbe	L1083
	testl	%edx, %edx
	jne	L1238
	movl	40(%esp), %eax
	movl	$1, 8(%esp)
	movl	%eax, 4(%esp)
	leal	4(%ebx), %eax
	movl	%eax, (%esp)
	call	__ZN5CCore4Math15IntegerFastAlgo8UAddUnitEPjjj
	jmp	L1083
	.p2align 4,,10
L1234:
	movl	48(%esp), %ecx
	movl	(%ebx,%ecx), %eax
	testl	%eax, %eax
	jne	L1239
	movl	40(%esp), %eax
	movl	$1, 8(%esp)
	movl	%eax, 4(%esp)
	leal	4(%ebx), %eax
	movl	%eax, (%esp)
	call	__ZN5CCore4Math15IntegerFastAlgo8UAddUnitEPjjj
	jmp	L1080
	.p2align 4,,10
L1084:
	movl	%edi, %eax
	movl	%ecx, (%esp)
	subl	%ebp, %eax
	movl	%eax, 4(%esp)
	call	__ZN5CCore4Math15IntegerFastAlgo4NullEPjj
	jmp	L1085
	.p2align 4,,10
L1239:
	negl	%eax
	movl	$0, (%ebx,%ecx)
	movl	%eax, 8(%esp)
	movl	%edi, 4(%esp)
	movl	%ebx, (%esp)
	call	__ZN5CCore4Math15IntegerFastAlgo8UAddUnitEPjjj
	jmp	L1080
	.p2align 4,,10
L1214:
	addl	60(%esp), %ebx
L1076:
	cmpl	%ebx, %esi
	ja	L1073
	shrl	108(%esp)
	movl	%esi, %ebp
	movl	108(%esp), %eax
	sall	68(%esp)
	cmpl	%eax, %edi
	jbe	L1089
L1063:
	movl	116(%esp), %eax
	testl	%eax, %eax
	je	L1240
	movl	52(%esp), %esi
	leal	0(,%edi,8), %eax
	movl	128(%esp), %ebp
	leal	(%esi,%eax), %ebx
	leal	-8(%esi,%eax), %eax
	movl	%ebx, 68(%esp)
	movl	220(%esp), %ebx
	movl	%eax, 72(%esp)
	movl	44(%esp), %eax
	subl	$4, %eax
	addl	%eax, %esi
	movl	%eax, 48(%esp)
	movl	40(%esp), %eax
	movl	%esi, 76(%esp)
	xorl	%esi, %esi
	movl	%esi, 56(%esp)
	subl	$2, %eax
	movl	%eax, 64(%esp)
	jmp	L1093
	.p2align 4,,10
L1090:
	movl	44(%esp), %eax
	addl	%edi, 56(%esp)
	movl	56(%esp), %esi
	addl	%eax, %ebx
	addl	%eax, %ebp
	cmpl	%esi, 116(%esp)
	jbe	L1241
L1093:
	movl	68(%esp), %eax
	movl	%edi, 12(%esp)
	movl	%ebp, 8(%esp)
	movl	%ebx, 4(%esp)
	movl	%eax, 16(%esp)
	movl	52(%esp), %eax
	movl	%eax, (%esp)
	call	__ZN5CCore4Math11FastMulAlgoIN3App12Private_60054BaseELb0EE7FFTAlgo4UMulEPjPKjS9_jNS5_10UnsafeWorkE
	movl	40(%esp), %esi
	movl	%ebx, (%esp)
	movl	52(%esp), %eax
	movl	%esi, 8(%esp)
	movl	%eax, 4(%esp)
	call	__ZN5CCore4Math15IntegerFastAlgo4CopyEPjPKjj
	movl	72(%esp), %eax
	movl	$2, 8(%esp)
	movl	%ebx, (%esp)
	movl	%eax, 4(%esp)
	call	__ZN5CCore4Math15IntegerFastAlgo4UAddEPjPKjj
	movl	%eax, 8(%esp)
	movl	64(%esp), %eax
	movl	%eax, 4(%esp)
	leal	8(%ebx), %eax
	movl	%eax, (%esp)
	call	__ZN5CCore4Math15IntegerFastAlgo8UAddUnitEPjjj
	movl	%esi, 8(%esp)
	movl	%eax, 60(%esp)
	movl	76(%esp), %eax
	movl	%ebx, (%esp)
	movl	%eax, 4(%esp)
	call	__ZN5CCore4Math15IntegerFastAlgo4USubEPjPKjj
	movl	60(%esp), %edx
	movl	48(%esp), %esi
	movl	%edx, %ecx
	subl	%eax, %ecx
	movl	%ecx, (%ebx,%esi)
	cmpl	%edx, %eax
	jbe	L1090
	testl	%ecx, %ecx
	jne	L1242
	movl	40(%esp), %eax
	movl	$1, 8(%esp)
	movl	%eax, 4(%esp)
	leal	4(%ebx), %eax
	movl	%eax, (%esp)
	call	__ZN5CCore4Math15IntegerFastAlgo8UAddUnitEPjjj
	jmp	L1090
	.p2align 4,,10
L1238:
	negl	%edx
	movl	$0, (%ebx,%ecx)
	movl	%edx, 8(%esp)
	movl	%edi, 4(%esp)
	movl	%ebx, (%esp)
	call	__ZN5CCore4Math15IntegerFastAlgo8UAddUnitEPjjj
	jmp	L1083
	.p2align 4,,10
L1236:
	negl	%eax
	movl	$0, 0(%ebp,%edx)
	movl	%eax, 8(%esp)
	movl	%edi, 4(%esp)
	movl	%ebp, (%esp)
	call	__ZN5CCore4Math15IntegerFastAlgo8UAddUnitEPjjj
	jmp	L1077
	.p2align 4,,10
L1143:
	movl	%ebp, %ebx
	jmp	L1076
L1242:
	negl	%ecx
	movl	$0, (%ebx,%esi)
	movl	%ecx, 8(%esp)
	movl	%edi, 4(%esp)
	movl	%ebx, (%esp)
	call	__ZN5CCore4Math15IntegerFastAlgo8UAddUnitEPjjj
	jmp	L1090
L1241:
	movl	216(%esp), %eax
	addl	%eax, %eax
	movl	%eax, 124(%esp)
	movl	196(%esp), %eax
	leal	-4(,%eax,8), %eax
	imull	%edi, %eax
	addl	220(%esp), %eax
	movl	%eax, 128(%esp)
	movl	196(%esp), %eax
	testl	%eax, %eax
	je	L1243
L1139:
	movl	44(%esp), %eax
	movl	52(%esp), %ebp
	movl	48(%esp), %esi
	addl	$4, %eax
	movl	%eax, 112(%esp)
	movl	40(%esp), %eax
	movl	%esi, 132(%esp)
	leal	0(%ebp,%eax,8), %eax
	movl	%eax, 104(%esp)
	movl	%ebp, %eax
	addl	%esi, %eax
	movl	%eax, 108(%esp)
	movl	92(%esp), %eax
	cmpl	220(%esp), %eax
	jbe	L1094
	movl	196(%esp), %eax
	movl	%edi, 120(%esp)
	movl	%eax, 72(%esp)
	.p2align 4,,10
L1116:
	movl	120(%esp), %eax
	movl	220(%esp), %ebx
	sall	$2, %eax
	movl	%eax, 88(%esp)
	.p2align 4,,10
L1095:
	movl	88(%esp), %eax
	leal	(%ebx,%eax), %ecx
	movl	%ecx, 64(%esp)
	cmpl	%ebx, %ecx
	jbe	L1144
	movl	72(%esp), %esi
	movl	196(%esp), %edx
	movl	%esi, 56(%esp)
	subl	%esi, %edx
	movl	%ecx, %esi
	movl	%edx, 60(%esp)
	movl	44(%esp), %edx
	addl	%edx, %eax
	addl	%ebx, %eax
	subl	%ecx, %eax
	movl	%eax, 68(%esp)
	jmp	L1099
	.p2align 4,,10
L1101:
	movl	72(%esp), %ecx
	addl	%ecx, 56(%esp)
	subl	%ecx, 60(%esp)
L1099:
	movl	%edi, 8(%esp)
	movl	%esi, 4(%esp)
	movl	%ebp, (%esp)
	call	__ZN5CCore4Math15IntegerFastAlgo4CopyEPjPKjj
	movl	%edi, 8(%esp)
	movl	%ebx, 4(%esp)
	movl	%esi, (%esp)
	call	__ZN5CCore4Math15IntegerFastAlgo4USubEPjPKjj
	testl	%eax, %eax
	jne	L1244
L1110:
	movl	%edi, 8(%esp)
	movl	%ebp, 4(%esp)
	movl	%ebx, (%esp)
	call	__ZN5CCore4Math15IntegerFastAlgo4UAddEPjPKjj
	testl	%eax, %eax
	jne	L1245
L1112:
	addl	44(%esp), %ebx
	addl	68(%esp), %esi
	cmpl	%ebx, 64(%esp)
	jbe	L1098
L1115:
	movl	56(%esp), %eax
	testl	%eax, %eax
	je	L1101
	movl	60(%esp), %eax
	testl	%eax, %eax
	jne	L1246
L1103:
	movl	%edi, 4(%esp)
	movl	%ebx, (%esp)
	call	__ZN5CCore4Math15IntegerFastAlgo4UNegEPjj
	testl	%eax, %eax
	je	L1101
	movl	48(%esp), %edx
	movl	(%ebx,%edx), %eax
	testl	%eax, %eax
	jne	L1247
	movl	40(%esp), %eax
	movl	$1, 8(%esp)
	movl	%eax, 4(%esp)
	leal	4(%ebx), %eax
	movl	%eax, (%esp)
	call	__ZN5CCore4Math15IntegerFastAlgo8UAddUnitEPjjj
	jmp	L1101
	.p2align 4,,10
L1245:
	movl	$1, 156(%esp)
	movl	48(%esp), %ecx
	movl	(%ebx,%ecx), %eax
	movl	$0, (%ebx,%ecx)
	movl	$2, 8(%esp)
	movl	%ebx, (%esp)
	movl	%eax, 152(%esp)
	leal	152(%esp), %eax
	movl	%eax, 4(%esp)
	call	__ZN5CCore4Math15IntegerFastAlgo4USubEPjPKjj
	movl	%eax, 8(%esp)
	movl	40(%esp), %eax
	subl	$1, %eax
	movl	%eax, 4(%esp)
	leal	8(%ebx), %eax
	movl	%eax, (%esp)
	call	__ZN5CCore4Math15IntegerFastAlgo8USubUnitEPjjj
	testl	%eax, %eax
	je	L1112
	movl	48(%esp), %ecx
	movl	(%ebx,%ecx), %eax
	testl	%eax, %eax
	jne	L1248
	movl	40(%esp), %eax
	movl	$1, 8(%esp)
	movl	%eax, 4(%esp)
	leal	4(%ebx), %eax
	movl	%eax, (%esp)
	call	__ZN5CCore4Math15IntegerFastAlgo8UAddUnitEPjjj
	addl	44(%esp), %ebx
	addl	68(%esp), %esi
	cmpl	%ebx, 64(%esp)
	ja	L1115
	.p2align 4,,10
L1098:
	movl	%esi, %ebx
	cmpl	%esi, 92(%esp)
	ja	L1095
L1254:
	sall	120(%esp)
	shrl	72(%esp)
	jne	L1116
L1094:
	movl	116(%esp), %eax
	testl	%eax, %eax
	je	L1096
L1097:
	movl	192(%esp), %eax
	movl	%edi, %ecx
	movl	196(%esp), %ebp
	leal	1(%eax), %esi
	subl	%esi, %ebp
	movl	%esi, 48(%esp)
	movl	140(%esp), %esi
	movl	%ebp, %eax
	movl	%ebp, %ebx
	movl	%ebp, 56(%esp)
	movl	132(%esp), %ebp
	shrl	$5, %eax
	andl	$31, %ebx
	subl	%eax, %ecx
	movl	%ebx, 68(%esp)
	movl	52(%esp), %ebx
	movl	%ecx, 92(%esp)
	movl	44(%esp), %ecx
	movl	%eax, 64(%esp)
	leal	(%ebx,%eax,4), %ebx
	addl	%ebx, %ecx
	movl	%ebx, 60(%esp)
	movl	%ecx, 76(%esp)
	movl	40(%esp), %ecx
	movl	%ecx, %edx
	subl	%eax, %edx
	movl	112(%esp), %eax
	movl	%edx, 84(%esp)
	addl	%ebx, %eax
	xorl	%ebx, %ebx
	movl	%eax, 88(%esp)
	leal	-2(%ecx), %eax
	movl	%eax, 72(%esp)
	jmp	L1129
	.p2align 4,,10
L1118:
	movl	(%esi,%ebp), %eax
	movl	$0, (%esi,%ebp)
	movl	%edi, 4(%esp)
	movl	%esi, (%esp)
	movl	%eax, 8(%esp)
	call	__ZN5CCore4Math15IntegerFastAlgo8USubUnitEPjjj
	testl	%eax, %eax
	jne	L1249
L1127:
	addl	%edi, %ebx
	addl	44(%esp), %esi
	cmpl	%ebx, 116(%esp)
	jbe	L1096
L1129:
	movl	48(%esp), %eax
	testl	%eax, %eax
	je	L1118
	movl	56(%esp), %ecx
	testl	%ecx, %ecx
	jne	L1250
L1120:
	movl	%edi, 4(%esp)
	movl	%esi, (%esp)
	call	__ZN5CCore4Math15IntegerFastAlgo4UNegEPjj
	testl	%eax, %eax
	je	L1118
	movl	(%esi,%ebp), %eax
	testl	%eax, %eax
	jne	L1251
	movl	40(%esp), %eax
	movl	$1, 8(%esp)
	movl	%eax, 4(%esp)
	leal	4(%esi), %eax
	movl	%eax, (%esp)
	call	__ZN5CCore4Math15IntegerFastAlgo8UAddUnitEPjjj
	jmp	L1118
	.p2align 4,,10
L1244:
	movl	48(%esp), %edx
	movl	(%esi,%edx), %eax
	testl	%eax, %eax
	jne	L1252
	movl	40(%esp), %eax
	movl	$1, 8(%esp)
	movl	%eax, 4(%esp)
	leal	4(%esi), %eax
	movl	%eax, (%esp)
	call	__ZN5CCore4Math15IntegerFastAlgo8UAddUnitEPjjj
	jmp	L1110
	.p2align 4,,10
L1252:
	negl	%eax
	movl	$0, (%esi,%edx)
	movl	%eax, 8(%esp)
	movl	%edi, 4(%esp)
	movl	%esi, (%esp)
	call	__ZN5CCore4Math15IntegerFastAlgo8UAddUnitEPjjj
	jmp	L1110
	.p2align 4,,10
L1246:
	movl	60(%esp), %eax
	movl	%ebp, (%esp)
	movl	%eax, %edx
	andl	$31, %eax
	shrl	$5, %edx
	movl	%eax, 84(%esp)
	movl	%edx, 4(%esp)
	movl	%edx, 76(%esp)
	call	__ZN5CCore4Math15IntegerFastAlgo4NullEPjj
	movl	76(%esp), %edx
	movl	%edi, 8(%esp)
	movl	%ebx, 4(%esp)
	leal	0(%ebp,%edx,4), %edx
	movl	%edx, (%esp)
	movl	%edx, 80(%esp)
	call	__ZN5CCore4Math15IntegerFastAlgo4CopyEPjPKjj
	movl	44(%esp), %eax
	movl	80(%esp), %edx
	leal	(%edx,%eax), %ecx
	movl	84(%esp), %eax
	testl	%eax, %eax
	je	L1104
	movl	%edx, (%esp)
	movl	%eax, 8(%esp)
	movl	%edi, 4(%esp)
	movl	%ecx, 84(%esp)
	call	__ZN5CCore4Math15IntegerFastAlgo7ULShiftEPjjj
	movl	84(%esp), %ecx
	movl	80(%esp), %edx
	addl	112(%esp), %edx
	movl	%eax, (%ecx)
	movl	40(%esp), %eax
	subl	76(%esp), %eax
	movl	%edx, (%esp)
	movl	%eax, 4(%esp)
	call	__ZN5CCore4Math15IntegerFastAlgo4NullEPjj
L1105:
	movl	40(%esp), %eax
	movl	%ebp, 4(%esp)
	movl	%ebx, (%esp)
	movl	%eax, 8(%esp)
	call	__ZN5CCore4Math15IntegerFastAlgo4CopyEPjPKjj
	movl	104(%esp), %edx
	movl	$2, 8(%esp)
	movl	%ebx, (%esp)
	movl	%edx, 4(%esp)
	call	__ZN5CCore4Math15IntegerFastAlgo4UAddEPjPKjj
	movl	%eax, 8(%esp)
	movl	40(%esp), %eax
	subl	$2, %eax
	movl	%eax, 4(%esp)
	leal	8(%ebx), %eax
	movl	%eax, (%esp)
	call	__ZN5CCore4Math15IntegerFastAlgo8UAddUnitEPjjj
	movl	%ebx, (%esp)
	movl	%eax, 76(%esp)
	movl	40(%esp), %eax
	movl	%eax, 8(%esp)
	movl	108(%esp), %eax
	movl	%eax, 4(%esp)
	call	__ZN5CCore4Math15IntegerFastAlgo4USubEPjPKjj
	movl	76(%esp), %ecx
	movl	%eax, 76(%esp)
	movl	%ecx, %edx
	subl	%eax, %edx
	movl	48(%esp), %eax
	movl	%edx, (%ebx,%eax)
	cmpl	%ecx, 76(%esp)
	jbe	L1103
	testl	%edx, %edx
	jne	L1253
	movl	40(%esp), %eax
	movl	$1, 8(%esp)
	movl	%eax, 4(%esp)
	leal	4(%ebx), %eax
	movl	%eax, (%esp)
	call	__ZN5CCore4Math15IntegerFastAlgo8UAddUnitEPjjj
	jmp	L1103
	.p2align 4,,10
L1104:
	movl	%edi, %eax
	subl	76(%esp), %eax
	movl	%ecx, (%esp)
	movl	%eax, 4(%esp)
	call	__ZN5CCore4Math15IntegerFastAlgo4NullEPjj
	jmp	L1105
	.p2align 4,,10
L1248:
	negl	%eax
	movl	$0, (%ebx,%ecx)
	movl	%eax, 8(%esp)
	movl	%edi, 4(%esp)
	movl	%ebx, (%esp)
	call	__ZN5CCore4Math15IntegerFastAlgo8UAddUnitEPjjj
	jmp	L1112
	.p2align 4,,10
L1247:
	negl	%eax
	movl	$0, (%ebx,%edx)
	movl	%eax, 8(%esp)
	movl	%edi, 4(%esp)
	movl	%ebx, (%esp)
	call	__ZN5CCore4Math15IntegerFastAlgo8UAddUnitEPjjj
	jmp	L1101
	.p2align 4,,10
L1144:
	movl	%ecx, %esi
	movl	%esi, %ebx
	cmpl	%esi, 92(%esp)
	ja	L1095
	jmp	L1254
	.p2align 4,,10
L1253:
	negl	%edx
	movl	$0, (%ebx,%eax)
	movl	%edx, 8(%esp)
	movl	%edi, 4(%esp)
	movl	%ebx, (%esp)
	call	__ZN5CCore4Math15IntegerFastAlgo8UAddUnitEPjjj
	jmp	L1103
	.p2align 4,,10
L1249:
	movl	(%esi,%ebp), %eax
	testl	%eax, %eax
	jne	L1255
	movl	40(%esp), %eax
	movl	$1, 8(%esp)
	addl	%edi, %ebx
	movl	%eax, 4(%esp)
	leal	4(%esi), %eax
	movl	%eax, (%esp)
	call	__ZN5CCore4Math15IntegerFastAlgo8UAddUnitEPjjj
	addl	44(%esp), %esi
	cmpl	%ebx, 116(%esp)
	ja	L1129
L1096:
	movl	124(%esp), %eax
	movl	%eax, 4(%esp)
	movl	204(%esp), %eax
	movl	%eax, (%esp)
	call	__ZN5CCore4Math15IntegerFastAlgo4NullEPjj
	testb	$31, 196(%esp)
	cmove	40(%esp), %edi
	movl	%edi, 40(%esp)
L1130:
	movl	128(%esp), %eax
	cmpl	%eax, 220(%esp)
	jnb	L1216
	movl	40(%esp), %eax
	xorl	%edx, %edx
	xorl	%ebx, %ebx
	movl	%edx, %esi
	movl	136(%esp), %edi
	sall	$2, %eax
	movl	%eax, 56(%esp)
	jmp	L1136
L1134:
	movl	40(%esp), %eax
	movl	%edx, (%esp)
	movl	%edi, 4(%esp)
	movl	%ecx, 52(%esp)
	movl	%edx, 48(%esp)
	movl	%eax, 8(%esp)
	call	__ZN5CCore4Math15IntegerFastAlgo4UAddEPjPKjj
	movl	52(%esp), %ecx
	subl	40(%esp), %ebp
	movl	48(%esp), %edx
	addl	56(%esp), %edx
	addl	%eax, %ecx
	movl	%ecx, 8(%esp)
	movl	%ebp, 4(%esp)
	movl	%edx, (%esp)
	call	__ZN5CCore4Math15IntegerFastAlgo8UAddUnitEPjjj
L1132:
	addl	96(%esp), %esi
	addl	100(%esp), %ebx
	cmpl	$31, %esi
	jbe	L1135
	subl	$32, %esi
	addl	$1, %ebx
L1135:
	addl	44(%esp), %edi
	cmpl	128(%esp), %edi
	jnb	L1216
L1136:
	movl	124(%esp), %eax
	cmpl	%eax, %ebx
	jnb	L1132
	movl	204(%esp), %ecx
	subl	%ebx, %eax
	movl	%eax, %ebp
	leal	(%ecx,%ebx,4), %edx
	xorl	%ecx, %ecx
	testl	%esi, %esi
	jne	L1256
L1133:
	cmpl	%ebp, 40(%esp)
	jb	L1134
	movl	%ebp, 8(%esp)
	movl	%edi, 4(%esp)
	movl	%edx, (%esp)
	call	__ZN5CCore4Math15IntegerFastAlgo4UAddEPjPKjj
	jmp	L1132
L1256:
	movl	40(%esp), %eax
	movl	%esi, 8(%esp)
	movl	%edi, (%esp)
	movl	%edx, 48(%esp)
	movl	%eax, 4(%esp)
	call	__ZN5CCore4Math15IntegerFastAlgo7ULShiftEPjjj
	movl	48(%esp), %edx
	movl	%eax, %ecx
	jmp	L1133
L1216:
	addl	$172, %esp
	.cfi_remember_state
	.cfi_def_cfa_offset 20
	popl	%ebx
	.cfi_restore 3
	.cfi_def_cfa_offset 16
	popl	%esi
	.cfi_restore 6
	.cfi_def_cfa_offset 12
	popl	%edi
	.cfi_restore 7
	.cfi_def_cfa_offset 8
	popl	%ebp
	.cfi_restore 5
	.cfi_def_cfa_offset 4
	ret
L1255:
	.cfi_restore_state
	negl	%eax
	movl	$0, (%esi,%ebp)
	movl	%eax, 8(%esp)
	movl	%edi, 4(%esp)
	movl	%esi, (%esp)
	call	__ZN5CCore4Math15IntegerFastAlgo8UAddUnitEPjjj
	jmp	L1127
L1250:
	movl	64(%esp), %eax
	movl	%eax, 4(%esp)
	movl	52(%esp), %eax
	movl	%eax, (%esp)
	call	__ZN5CCore4Math15IntegerFastAlgo4NullEPjj
	movl	60(%esp), %eax
	movl	%edi, 8(%esp)
	movl	%esi, 4(%esp)
	movl	%eax, (%esp)
	call	__ZN5CCore4Math15IntegerFastAlgo4CopyEPjPKjj
	movl	68(%esp), %ecx
	testl	%ecx, %ecx
	je	L1121
	movl	60(%esp), %eax
	movl	%ecx, 8(%esp)
	movl	%edi, 4(%esp)
	movl	%eax, (%esp)
	call	__ZN5CCore4Math15IntegerFastAlgo7ULShiftEPjjj
	movl	76(%esp), %edx
	movl	%eax, (%edx)
	movl	84(%esp), %eax
	movl	%eax, 4(%esp)
	movl	88(%esp), %eax
	movl	%eax, (%esp)
	call	__ZN5CCore4Math15IntegerFastAlgo4NullEPjj
L1122:
	movl	40(%esp), %eax
	movl	%esi, (%esp)
	movl	52(%esp), %edx
	movl	%eax, 8(%esp)
	movl	%edx, 4(%esp)
	call	__ZN5CCore4Math15IntegerFastAlgo4CopyEPjPKjj
	movl	104(%esp), %edx
	movl	$2, 8(%esp)
	movl	%esi, (%esp)
	movl	%edx, 4(%esp)
	call	__ZN5CCore4Math15IntegerFastAlgo4UAddEPjPKjj
	movl	72(%esp), %ecx
	movl	%eax, 8(%esp)
	leal	8(%esi), %eax
	movl	%eax, (%esp)
	movl	%ecx, 4(%esp)
	call	__ZN5CCore4Math15IntegerFastAlgo8UAddUnitEPjjj
	movl	%esi, (%esp)
	movl	%eax, 80(%esp)
	movl	40(%esp), %eax
	movl	%eax, 8(%esp)
	movl	108(%esp), %eax
	movl	%eax, 4(%esp)
	call	__ZN5CCore4Math15IntegerFastAlgo4USubEPjPKjj
	movl	80(%esp), %ecx
	movl	%ecx, %edx
	subl	%eax, %edx
	movl	%edx, (%esi,%ebp)
	cmpl	%ecx, %eax
	jbe	L1120
	testl	%edx, %edx
	jne	L1257
	movl	40(%esp), %eax
	movl	$1, 8(%esp)
	movl	%eax, 4(%esp)
	leal	4(%esi), %eax
	movl	%eax, (%esp)
	call	__ZN5CCore4Math15IntegerFastAlgo8UAddUnitEPjjj
	jmp	L1120
L1121:
	movl	92(%esp), %eax
	movl	%eax, 4(%esp)
	movl	76(%esp), %eax
	movl	%eax, (%esp)
	call	__ZN5CCore4Math15IntegerFastAlgo4NullEPjj
	jmp	L1122
L1251:
	negl	%eax
	movl	$0, (%esi,%ebp)
	movl	%eax, 8(%esp)
	movl	%edi, 4(%esp)
	movl	%esi, (%esp)
	call	__ZN5CCore4Math15IntegerFastAlgo8UAddUnitEPjjj
	jmp	L1118
L1233:
	movl	56(%esp), %eax
	negl	%edx
	movl	$0, (%ebx,%edi)
	movl	%edx, 8(%esp)
	movl	%ebx, (%esp)
	movl	%eax, 4(%esp)
	call	__ZN5CCore4Math15IntegerFastAlgo8UAddUnitEPjjj
	jmp	L1066
L1226:
	movl	60(%esp), %eax
	negl	%edx
	movl	$0, (%esi,%edi)
	movl	%edx, 8(%esp)
	movl	%esi, (%esp)
	movl	%eax, 4(%esp)
	call	__ZN5CCore4Math15IntegerFastAlgo8UAddUnitEPjjj
	jmp	L1040
L1218:
	movl	72(%esp), %edi
	jmp	L1001
L1222:
	movl	72(%esp), %edi
	jmp	L1021
L1033:
	movl	212(%esp), %eax
	movl	%esi, 8(%esp)
	movl	%ebp, (%esp)
	movl	%eax, 4(%esp)
	call	__ZN5CCore4Math15IntegerFastAlgo4CopyEPjPKjj
	movl	60(%esp), %ecx
	leal	0(,%esi,4), %edx
	leal	0(%ebp,%edx), %ebx
	testl	%ecx, %ecx
	jne	L1258
	movl	%edi, %eax
	movl	%ebx, (%esp)
	subl	%esi, %eax
	movl	%eax, 4(%esp)
	call	__ZN5CCore4Math15IntegerFastAlgo4NullEPjj
	jmp	L1036
L1035:
	movl	%edx, 8(%esp)
	movl	%esi, 4(%esp)
	movl	%ebp, (%esp)
	call	__ZN5CCore4Math15IntegerFastAlgo7URShiftEPjjj
	movl	%edi, %eax
	subl	%esi, %eax
	movl	%eax, 4(%esp)
	movl	48(%esp), %eax
	movl	%eax, (%esp)
	call	__ZN5CCore4Math15IntegerFastAlgo4NullEPjj
	jmp	L1036
L1015:
	movl	%edx, 8(%esp)
	movl	%esi, 4(%esp)
	movl	%ebp, (%esp)
	call	__ZN5CCore4Math15IntegerFastAlgo7URShiftEPjjj
	movl	%edi, %eax
	subl	%esi, %eax
	movl	%eax, 4(%esp)
	movl	48(%esp), %eax
	movl	%eax, (%esp)
	call	__ZN5CCore4Math15IntegerFastAlgo4NullEPjj
	jmp	L1016
L1013:
	movl	208(%esp), %eax
	movl	%esi, 8(%esp)
	movl	%ebp, (%esp)
	movl	%eax, 4(%esp)
	call	__ZN5CCore4Math15IntegerFastAlgo4CopyEPjPKjj
	movl	60(%esp), %ecx
	leal	0(,%esi,4), %edx
	leal	0(%ebp,%edx), %ebx
	testl	%ecx, %ecx
	jne	L1259
	movl	%edi, %eax
	movl	%ebx, (%esp)
	subl	%esi, %eax
	movl	%eax, 4(%esp)
	call	__ZN5CCore4Math15IntegerFastAlgo4NullEPjj
	jmp	L1016
L1257:
	negl	%edx
	movl	$0, (%esi,%ebp)
	movl	%edx, 8(%esp)
	movl	%edi, 4(%esp)
	movl	%esi, (%esp)
	call	__ZN5CCore4Math15IntegerFastAlgo8UAddUnitEPjjj
	jmp	L1120
L1258:
	movl	$-1, %eax
	sall	%cl, %eax
	movl	212(%esp), %ecx
	notl	%eax
	andl	(%ecx,%esi,4), %eax
	movl	%eax, (%ebx)
	movl	40(%esp), %eax
	subl	%esi, %eax
	movl	%eax, 4(%esp)
	leal	4(%ebp,%edx), %eax
	movl	%eax, (%esp)
	call	__ZN5CCore4Math15IntegerFastAlgo4NullEPjj
	jmp	L1036
L1259:
	movl	$-1, %eax
	sall	%cl, %eax
	movl	208(%esp), %ecx
	notl	%eax
	andl	(%ecx,%esi,4), %eax
	movl	%eax, (%ebx)
	movl	40(%esp), %eax
	subl	%esi, %eax
	movl	%eax, 4(%esp)
	leal	4(%ebp,%edx), %eax
	movl	%eax, (%esp)
	call	__ZN5CCore4Math15IntegerFastAlgo4NullEPjj
	jmp	L1016
L1240:
	movl	216(%esp), %eax
	movl	196(%esp), %edx
	addl	%eax, %eax
	movl	%eax, 124(%esp)
	movl	196(%esp), %eax
	leal	-4(,%eax,8), %eax
	imull	%edi, %eax
	addl	220(%esp), %eax
	movl	%eax, 128(%esp)
	testl	%edx, %edx
	je	L1138
	movl	44(%esp), %eax
	subl	$4, %eax
	movl	%eax, 48(%esp)
	jmp	L1139
L1046:
	movl	120(%esp), %eax
	movl	112(%esp), %esi
	movl	%eax, 8(%esp)
	movl	92(%esp), %eax
	movl	%esi, (%esp)
	movl	%eax, 4(%esp)
	call	__ZN5CCore4Math15IntegerFastAlgo4CopyEPjPKjj
	cmpl	124(%esp), %esi
	jbe	L1063
	movl	44(%esp), %esi
	movl	40(%esp), %ebx
	leal	4(%esi), %eax
	subl	$4, %esi
	movl	%eax, 104(%esp)
	movl	52(%esp), %eax
	movl	%esi, 48(%esp)
	leal	(%eax,%ebx,8), %ebx
	addl	%esi, %eax
	movl	%ebx, 76(%esp)
	movl	%eax, 72(%esp)
	jmp	L1137
	.p2align 4,,10
L1243:
	movl	52(%esp), %eax
	movl	$8, 112(%esp)
	movl	$0, 132(%esp)
	movl	%eax, 108(%esp)
	movl	%eax, 104(%esp)
	jmp	L1097
L1138:
	movl	124(%esp), %eax
	movl	%eax, 4(%esp)
	movl	204(%esp), %eax
	movl	%eax, (%esp)
	call	__ZN5CCore4Math15IntegerFastAlgo4NullEPjj
	movl	$0, 40(%esp)
	jmp	L1130
	.cfi_endproc
LFE5096:
	.section	.text$_ZN5CCore4Math11FastMulAlgoIN3App12Private_60054BaseELb0EE4UMulEPjPKjS8_jNS5_10UnsafeWorkE,"x"
	.linkonce discard
	.p2align 4,,15
	.globl	__ZN5CCore4Math11FastMulAlgoIN3App12Private_60054BaseELb0EE4UMulEPjPKjS8_jNS5_10UnsafeWorkE
	.def	__ZN5CCore4Math11FastMulAlgoIN3App12Private_60054BaseELb0EE4UMulEPjPKjS8_jNS5_10UnsafeWorkE;	.scl	2;	.type	32;	.endef
__ZN5CCore4Math11FastMulAlgoIN3App12Private_60054BaseELb0EE4UMulEPjPKjS8_jNS5_10UnsafeWorkE:
LFB5065:
	.cfi_startproc
	pushl	%ebp
	.cfi_def_cfa_offset 8
	.cfi_offset 5, -8
	pushl	%edi
	.cfi_def_cfa_offset 12
	.cfi_offset 7, -12
	pushl	%esi
	.cfi_def_cfa_offset 16
	.cfi_offset 6, -16
	pushl	%ebx
	.cfi_def_cfa_offset 20
	.cfi_offset 3, -20
	subl	$76, %esp
	.cfi_def_cfa_offset 96
	movl	96(%esp), %eax
	movl	108(%esp), %ebx
	movl	%eax, 52(%esp)
	movl	100(%esp), %eax
	movl	%eax, 56(%esp)
	movl	104(%esp), %eax
	movl	%eax, 48(%esp)
	movl	112(%esp), %eax
	movl	%eax, 60(%esp)
	cmpl	$29, %ebx
	ja	L1261
	testl	%ebx, %ebx
	jne	L1275
	addl	$76, %esp
	.cfi_remember_state
	.cfi_def_cfa_offset 20
	popl	%ebx
	.cfi_restore 3
	.cfi_def_cfa_offset 16
	popl	%esi
	.cfi_restore 6
	.cfi_def_cfa_offset 12
	popl	%edi
	.cfi_restore 7
	.cfi_def_cfa_offset 8
	popl	%ebp
	.cfi_restore 5
	.cfi_def_cfa_offset 4
	ret
	.p2align 4,,10
L1261:
	.cfi_restore_state
	cmpl	$109, %ebx
	jbe	L1276
	cmpl	$169, %ebx
	jbe	L1277
	cmpl	$3999, %ebx
	jbe	L1278
	movl	%ebx, (%esp)
	movl	$1, %ebp
	movl	$-1, %esi
	call	__ZN5CCore5Quick9ScanMSBitEj
	movl	$5, %edx
	addl	$1, %eax
	cmpl	$5, %eax
	cmovb	%edx, %eax
	addl	$5, %eax
	shrl	%eax
	leal	1(%eax), %edi
	movl	%edi, %ecx
	sall	%cl, %ebp
	leal	-4(%eax), %ecx
	movl	%ebp, %edx
	xorl	%eax, %eax
	sall	%cl, %esi
	subl	%edi, %edx
	notl	%esi
	shrl	%edx
	testl	%ebx, %esi
	movl	%ebx, %esi
	setne	%al
	shrl	%cl, %esi
	addl	%esi, %eax
	cmpl	%eax, %edx
	jnb	L1279
	.p2align 4,,10
L1266:
	leal	1(%edi), %esi
	movl	$1, %ebp
	movl	$-1, %eax
	movl	%esi, %ecx
	sall	%cl, %ebp
	leal	-4(%edi), %ecx
	movl	%ebp, %edx
	movl	%esi, %edi
	sall	%cl, %eax
	subl	%esi, %edx
	notl	%eax
	shrl	%edx
	testl	%ebx, %eax
	setne	%al
	movzbl	%al, %eax
	movl	%eax, 44(%esp)
	movl	%ebx, %eax
	shrl	%cl, %eax
	movl	%eax, %ecx
	movl	44(%esp), %eax
	addl	%ecx, %eax
	cmpl	%eax, %edx
	jb	L1266
L1267:
	movl	60(%esp), %eax
	movl	%ebx, 24(%esp)
	movl	%ebp, 4(%esp)
	movl	%esi, (%esp)
	movl	%edx, 8(%esp)
	movl	%eax, 28(%esp)
	movl	48(%esp), %eax
	movl	%eax, 20(%esp)
	movl	56(%esp), %eax
	movl	%eax, 16(%esp)
	movl	52(%esp), %eax
	movl	%eax, 12(%esp)
	call	__ZN5CCore4Math6FFTMulINS0_11FastMulAlgoIN3App12Private_60054BaseELb0EE7FFTAlgoEE12InternalUMulEjjjPjPKjSB_jNS6_10UnsafeWorkE
	addl	$76, %esp
	.cfi_remember_state
	.cfi_def_cfa_offset 20
	popl	%ebx
	.cfi_restore 3
	.cfi_def_cfa_offset 16
	popl	%esi
	.cfi_restore 6
	.cfi_def_cfa_offset 12
	popl	%edi
	.cfi_restore 7
	.cfi_def_cfa_offset 8
	popl	%ebp
	.cfi_restore 5
	.cfi_def_cfa_offset 4
	ret
	.p2align 4,,10
L1275:
	.cfi_restore_state
	movl	48(%esp), %eax
	movl	%ebx, 112(%esp)
	movl	%ebx, 104(%esp)
	movl	%eax, 108(%esp)
	addl	$76, %esp
	.cfi_remember_state
	.cfi_def_cfa_offset 20
	popl	%ebx
	.cfi_restore 3
	.cfi_def_cfa_offset 16
	popl	%esi
	.cfi_restore 6
	.cfi_def_cfa_offset 12
	popl	%edi
	.cfi_restore 7
	.cfi_def_cfa_offset 8
	popl	%ebp
	.cfi_restore 5
	.cfi_def_cfa_offset 4
	jmp	*__imp____gmpn_mul
	.p2align 4,,10
L1276:
	.cfi_restore_state
	addl	$76, %esp
	.cfi_remember_state
	.cfi_def_cfa_offset 20
	popl	%ebx
	.cfi_restore 3
	.cfi_def_cfa_offset 16
	popl	%esi
	.cfi_restore 6
	.cfi_def_cfa_offset 12
	popl	%edi
	.cfi_restore 7
	.cfi_def_cfa_offset 8
	popl	%ebp
	.cfi_restore 5
	.cfi_def_cfa_offset 4
	jmp	__ZN5CCore4Math11FastMulAlgoIN3App12Private_60054BaseELb0EE9Toom22MulEPjPKjS8_jNS5_10UnsafeWorkE
	.p2align 4,,10
L1278:
	.cfi_restore_state
	addl	$76, %esp
	.cfi_remember_state
	.cfi_def_cfa_offset 20
	popl	%ebx
	.cfi_restore 3
	.cfi_def_cfa_offset 16
	popl	%esi
	.cfi_restore 6
	.cfi_def_cfa_offset 12
	popl	%edi
	.cfi_restore 7
	.cfi_def_cfa_offset 8
	popl	%ebp
	.cfi_restore 5
	.cfi_def_cfa_offset 4
	jmp	__ZN5CCore4Math11FastMulAlgoIN3App12Private_60054BaseELb0EE9Toom44MulEPjPKjS8_jNS5_10UnsafeWorkE
	.p2align 4,,10
L1277:
	.cfi_restore_state
	addl	$76, %esp
	.cfi_remember_state
	.cfi_def_cfa_offset 20
	popl	%ebx
	.cfi_restore 3
	.cfi_def_cfa_offset 16
	popl	%esi
	.cfi_restore 6
	.cfi_def_cfa_offset 12
	popl	%edi
	.cfi_restore 7
	.cfi_def_cfa_offset 8
	popl	%ebp
	.cfi_restore 5
	.cfi_def_cfa_offset 4
	jmp	__ZN5CCore4Math11FastMulAlgoIN3App12Private_60054BaseELb0EE9Toom33MulEPjPKjS8_jNS5_10UnsafeWorkE
	.p2align 4,,10
L1279:
	.cfi_restore_state
	movl	%edi, %esi
	jmp	L1267
	.cfi_endproc
LFE5065:
	.section	.text$_ZN5CCore4Math11FastMulAlgoIN3App12Private_60054BaseELb0EE9Toom22MulEPjPKjS8_jNS5_10UnsafeWorkE,"x"
	.linkonce discard
	.p2align 4,,15
	.globl	__ZN5CCore4Math11FastMulAlgoIN3App12Private_60054BaseELb0EE9Toom22MulEPjPKjS8_jNS5_10UnsafeWorkE
	.def	__ZN5CCore4Math11FastMulAlgoIN3App12Private_60054BaseELb0EE9Toom22MulEPjPKjS8_jNS5_10UnsafeWorkE;	.scl	2;	.type	32;	.endef
__ZN5CCore4Math11FastMulAlgoIN3App12Private_60054BaseELb0EE9Toom22MulEPjPKjS8_jNS5_10UnsafeWorkE:
LFB5051:
	.cfi_startproc
	pushl	%ebp
	.cfi_def_cfa_offset 8
	.cfi_offset 5, -8
	pushl	%edi
	.cfi_def_cfa_offset 12
	.cfi_offset 7, -12
	pushl	%esi
	.cfi_def_cfa_offset 16
	.cfi_offset 6, -16
	pushl	%ebx
	.cfi_def_cfa_offset 20
	.cfi_offset 3, -20
	subl	$108, %esp
	.cfi_def_cfa_offset 128
	movl	140(%esp), %edi
	movl	144(%esp), %eax
	movl	132(%esp), %edx
	movl	128(%esp), %ecx
	movl	136(%esp), %ebp
	movl	%edi, 64(%esp)
	movl	%eax, 48(%esp)
	movl	%edi, %eax
	shrl	%eax
	movl	%edx, 52(%esp)
	subl	%eax, %edi
	movl	%ecx, 44(%esp)
	leal	0(,%edi,4), %ebx
	movl	%eax, 68(%esp)
	leal	(%ecx,%ebx), %esi
	addl	%ebx, %edx
	movl	%edx, 56(%esp)
	leal	0(%ebp,%ebx), %edx
	movl	%edx, 60(%esp)
	movl	%esi, 40(%esp)
	cmpl	%edi, %eax
	je	L1337
	leal	(%edi,%edi), %eax
	movl	%eax, 84(%esp)
	movl	48(%esp), %eax
	leal	(%eax,%edi,8), %eax
	movl	%eax, 64(%esp)
	testl	%edi, %edi
	je	L1317
	movl	52(%esp), %esi
	leal	-4(%ebx), %eax
	movl	%ecx, %edx
	movl	%eax, 76(%esp)
	addl	%eax, %edx
	movl	-4(%esi,%ebx), %ecx
	leal	-1(%edi), %esi
	testl	%ecx, %ecx
	jne	L1338
	leal	-8(%ebx), %eax
	movl	$0, (%edx)
	movl	%eax, 72(%esp)
	testl	%esi, %esi
	je	L1299
	movl	52(%esp), %eax
	movl	-8(%eax,%ebx), %ecx
	movl	56(%esp), %eax
	movl	-8(%eax,%ebx), %edx
	cmpl	%edx, %ecx
	jne	L1339
	leal	-8(%ebx), %eax
	movl	%ebx, 80(%esp)
	subl	%ebx, %eax
	addl	44(%esp), %eax
	movl	%edi, 88(%esp)
	movl	56(%esp), %ebx
	movl	%esi, 92(%esp)
	movl	52(%esp), %edi
	movl	%eax, %ecx
	movl	%esi, %eax
	movl	%ecx, %esi
	.p2align 4,,10
L1302:
	movl	$0, 4(%esi,%eax,4)
	subl	$1, %eax
	je	L1340
	movl	-4(%edi,%eax,4), %ecx
	movl	-4(%ebx,%eax,4), %edx
	cmpl	%edx, %ecx
	je	L1302
	movl	80(%esp), %ebx
	movl	88(%esp), %edi
	movl	92(%esp), %esi
L1300:
	movl	%eax, 12(%esp)
	cmpl	%edx, %ecx
	jb	L1341
	movl	56(%esp), %eax
	movl	%eax, 8(%esp)
	movl	52(%esp), %eax
	movl	%eax, 4(%esp)
	movl	44(%esp), %eax
	movl	%eax, (%esp)
	call	__ZN5CCore4Math15IntegerFastAlgo4USubEPjPKjS4_j
	movb	$0, 80(%esp)
L1298:
	movl	-4(%ebp,%ebx), %ecx
	movl	76(%esp), %edx
	addl	40(%esp), %edx
	testl	%ecx, %ecx
	jne	L1342
	movl	$0, (%edx)
	testl	%esi, %esi
	je	L1319
	movl	60(%esp), %eax
	movl	-8(%ebp,%ebx), %edx
	movl	-8(%eax,%ebx), %eax
	cmpl	%edx, %eax
	jne	L1307
	movl	72(%esp), %ecx
	leal	0(,%edi,4), %eax
	movl	%ebx, 76(%esp)
	movl	60(%esp), %ebx
	subl	%eax, %ecx
	addl	40(%esp), %ecx
	.p2align 4,,10
L1309:
	movl	$0, 4(%ecx,%esi,4)
	subl	$1, %esi
	je	L1343
	movl	-4(%ebp,%esi,4), %edx
	movl	-4(%ebx,%esi,4), %eax
	cmpl	%eax, %edx
	je	L1309
	movl	76(%esp), %ebx
L1307:
	movl	%esi, 12(%esp)
	cmpl	%eax, %edx
	jnb	L1310
	movl	60(%esp), %eax
	movl	%ebp, 8(%esp)
	movl	%eax, 4(%esp)
	movl	40(%esp), %eax
	movl	%eax, (%esp)
	call	__ZN5CCore4Math15IntegerFastAlgo4USubEPjPKjS4_j
	movb	$1, 76(%esp)
	movl	40(%esp), %esi
	movl	44(%esp), %ecx
	jmp	L1296
	.p2align 4,,10
L1317:
	leal	-8(%ebx), %eax
	movb	$0, 80(%esp)
	movb	$0, 76(%esp)
	movl	%eax, 72(%esp)
L1296:
	movl	64(%esp), %eax
	movl	%edi, 12(%esp)
	movl	48(%esp), %edx
	movl	%esi, 8(%esp)
	movl	%ecx, 4(%esp)
	movl	%eax, 16(%esp)
	movl	%edx, (%esp)
	call	__ZN5CCore4Math11FastMulAlgoIN3App12Private_60054BaseELb0EE4UMulEPjPKjS8_jNS5_10UnsafeWorkE
	movl	52(%esp), %edx
	movl	%edi, 12(%esp)
	movl	44(%esp), %ecx
	movl	%ebp, 8(%esp)
	movl	%esi, %ebp
	movl	64(%esp), %eax
	leal	(%esi,%ebx), %esi
	addl	%esi, %ebx
	movl	%edx, 4(%esp)
	movl	%ecx, (%esp)
	movl	%eax, 16(%esp)
	call	__ZN5CCore4Math11FastMulAlgoIN3App12Private_60054BaseELb0EE4UMulEPjPKjS8_jNS5_10UnsafeWorkE
	movl	64(%esp), %eax
	movl	%esi, (%esp)
	movl	%eax, 16(%esp)
	movl	68(%esp), %eax
	movl	%eax, 12(%esp)
	movl	60(%esp), %eax
	movl	%eax, 8(%esp)
	movl	56(%esp), %eax
	movl	%eax, 4(%esp)
	call	__ZN5CCore4Math11FastMulAlgoIN3App12Private_60054BaseELb0EE4UMulEPjPKjS8_jNS5_10UnsafeWorkE
	movl	%edi, 8(%esp)
	movl	%ebp, 4(%esp)
	movl	%esi, (%esp)
	call	__ZN5CCore4Math15IntegerFastAlgo4UAddEPjPKjj
	movl	44(%esp), %ecx
	movl	%edi, 12(%esp)
	movl	%ebp, (%esp)
	leal	-2(%edi), %ebp
	movl	%esi, 4(%esp)
	movl	%eax, 52(%esp)
	movl	%ecx, 8(%esp)
	call	__ZN5CCore4Math15IntegerFastAlgo4UAddEPjPKjS4_j
	addl	52(%esp), %eax
	movl	%ebp, 8(%esp)
	movl	%ebx, 4(%esp)
	movl	%esi, (%esp)
	movl	%eax, 44(%esp)
	call	__ZN5CCore4Math15IntegerFastAlgo4UAddEPjPKjj
	movl	72(%esp), %edx
	movl	$2, 4(%esp)
	movl	%eax, 8(%esp)
	addl	%esi, %edx
	movl	%edx, (%esp)
	call	__ZN5CCore4Math15IntegerFastAlgo8UAddUnitEPjjj
	movl	52(%esp), %edx
	movl	%edi, 4(%esp)
	movl	%esi, (%esp)
	addl	%eax, %edx
	movl	44(%esp), %eax
	movl	%edx, 52(%esp)
	movl	%eax, 8(%esp)
	call	__ZN5CCore4Math15IntegerFastAlgo8UAddUnitEPjjj
	movl	52(%esp), %edx
	movzbl	80(%esp), %ecx
	cmpb	%cl, 76(%esp)
	leal	(%edx,%eax), %edi
	movl	84(%esp), %eax
	movl	%eax, 8(%esp)
	movl	48(%esp), %eax
	movl	%eax, 4(%esp)
	movl	40(%esp), %eax
	movl	%eax, (%esp)
	je	L1344
	call	__ZN5CCore4Math15IntegerFastAlgo4UAddEPjPKjj
	addl	%eax, %edi
L1313:
	movl	%edi, 136(%esp)
	movl	%ebp, 132(%esp)
	movl	%ebx, 128(%esp)
	addl	$108, %esp
	.cfi_remember_state
	.cfi_def_cfa_offset 20
	popl	%ebx
	.cfi_restore 3
	.cfi_def_cfa_offset 16
	popl	%esi
	.cfi_restore 6
	.cfi_def_cfa_offset 12
	popl	%edi
	.cfi_restore 7
	.cfi_def_cfa_offset 8
	popl	%ebp
	.cfi_restore 5
	.cfi_def_cfa_offset 4
	jmp	__ZN5CCore4Math15IntegerFastAlgo8UAddUnitEPjjj
	.p2align 4,,10
L1337:
	.cfi_restore_state
	movl	64(%esp), %eax
	leal	(%eax,%edi), %ecx
	sall	$2, %eax
	movl	%ecx, 68(%esp)
	movl	48(%esp), %ecx
	movl	%eax, 72(%esp)
	addl	%eax, %ecx
	movl	%ecx, 76(%esp)
	testl	%edi, %edi
	je	L1314
	leal	1073741823(%edi), %esi
	leal	0(,%esi,4), %eax
	movl	%eax, 80(%esp)
	movl	52(%esp), %eax
	movl	(%eax,%esi,4), %edx
	movl	56(%esp), %eax
	movl	(%eax,%esi,4), %ecx
	cmpl	%ecx, %edx
	jne	L1345
	leal	0(,%esi,4), %eax
	movl	%edi, 84(%esp)
	subl	%ebx, %eax
	movl	44(%esp), %ebx
	movl	%ebp, 88(%esp)
	movl	52(%esp), %ebp
	addl	%eax, %ebx
	movl	%edi, %eax
	movl	56(%esp), %edi
	jmp	L1285
	.p2align 4,,10
L1288:
	movl	-4(%ebp,%eax,4), %edx
	movl	-4(%edi,%eax,4), %ecx
	cmpl	%ecx, %edx
	jne	L1346
L1285:
	movl	$0, (%ebx,%eax,4)
	subl	$1, %eax
	jne	L1288
	movl	88(%esp), %ebp
	movl	84(%esp), %edi
	movb	$0, 84(%esp)
L1287:
	movl	60(%esp), %eax
	movl	0(%ebp,%esi,4), %edx
	movl	(%eax,%esi,4), %ecx
	cmpl	%edx, %ecx
	jne	L1347
	movl	80(%esp), %ebx
	movl	%eax, %esi
	leal	0(,%edi,4), %eax
	subl	%eax, %ebx
	movl	%ebx, %eax
	movl	40(%esp), %ebx
	addl	%eax, %ebx
	movl	%edi, %eax
	jmp	L1291
	.p2align 4,,10
L1293:
	movl	-4(%ebp,%eax,4), %edx
	movl	-4(%esi,%eax,4), %ecx
	cmpl	%ecx, %edx
	jne	L1289
L1291:
	movl	$0, (%ebx,%eax,4)
	subl	$1, %eax
	jne	L1293
	movl	76(%esp), %esi
	movb	$0, 80(%esp)
L1282:
	movl	40(%esp), %eax
	movl	%esi, 16(%esp)
	movl	44(%esp), %ebx
	movl	%edi, 12(%esp)
	movl	48(%esp), %ecx
	movl	%eax, 8(%esp)
	movl	%ebx, 4(%esp)
	movl	%ecx, (%esp)
	call	__ZN5CCore4Math11FastMulAlgoIN3App12Private_60054BaseELb0EE4UMulEPjPKjS8_jNS5_10UnsafeWorkE
	movl	52(%esp), %ecx
	movl	%esi, 16(%esp)
	movl	%ebp, 8(%esp)
	movl	%ebx, %ebp
	movl	%ebx, (%esp)
	movl	%edi, 12(%esp)
	movl	%ecx, 4(%esp)
	call	__ZN5CCore4Math11FastMulAlgoIN3App12Private_60054BaseELb0EE4UMulEPjPKjS8_jNS5_10UnsafeWorkE
	movl	72(%esp), %ebx
	movl	%esi, 16(%esp)
	movl	60(%esp), %ecx
	movl	%edi, 12(%esp)
	movl	56(%esp), %esi
	addl	%ebp, %ebx
	movl	%ecx, 8(%esp)
	movl	%esi, 4(%esp)
	movl	%ebx, (%esp)
	call	__ZN5CCore4Math11FastMulAlgoIN3App12Private_60054BaseELb0EE4UMulEPjPKjS8_jNS5_10UnsafeWorkE
	movl	40(%esp), %eax
	movl	%edi, 8(%esp)
	movl	%ebx, (%esp)
	movl	%eax, 4(%esp)
	call	__ZN5CCore4Math15IntegerFastAlgo4UAddEPjPKjj
	movl	%ebp, 8(%esp)
	movl	%eax, %esi
	movl	40(%esp), %eax
	movl	%edi, 12(%esp)
	movl	%ebx, 4(%esp)
	movl	%eax, (%esp)
	call	__ZN5CCore4Math15IntegerFastAlgo4UAddEPjPKjS4_j
	movl	68(%esp), %ecx
	movl	%edi, 8(%esp)
	addl	%esi, %eax
	movl	%ebx, (%esp)
	movl	%eax, 44(%esp)
	leal	0(%ebp,%ecx,4), %ebp
	movl	%ebp, 4(%esp)
	call	__ZN5CCore4Math15IntegerFastAlgo4UAddEPjPKjj
	movl	%edi, 4(%esp)
	addl	%eax, %esi
	movl	44(%esp), %eax
	movl	%ebx, (%esp)
	movl	%eax, 8(%esp)
	call	__ZN5CCore4Math15IntegerFastAlgo8UAddUnitEPjjj
	movzbl	84(%esp), %ecx
	addl	%eax, %esi
	movl	64(%esp), %eax
	cmpb	%cl, 80(%esp)
	movl	%eax, 8(%esp)
	movl	48(%esp), %eax
	movl	%eax, 4(%esp)
	movl	40(%esp), %eax
	movl	%eax, (%esp)
	je	L1348
	call	__ZN5CCore4Math15IntegerFastAlgo4UAddEPjPKjj
	addl	%eax, %esi
L1295:
	movl	%esi, 136(%esp)
	movl	%edi, 132(%esp)
	movl	%ebp, 128(%esp)
	addl	$108, %esp
	.cfi_remember_state
	.cfi_def_cfa_offset 20
	popl	%ebx
	.cfi_restore 3
	.cfi_def_cfa_offset 16
	popl	%esi
	.cfi_restore 6
	.cfi_def_cfa_offset 12
	popl	%edi
	.cfi_restore 7
	.cfi_def_cfa_offset 8
	popl	%ebp
	.cfi_restore 5
	.cfi_def_cfa_offset 4
	jmp	__ZN5CCore4Math15IntegerFastAlgo8UAddUnitEPjjj
	.p2align 4,,10
L1344:
	.cfi_restore_state
	call	__ZN5CCore4Math15IntegerFastAlgo4USubEPjPKjj
	subl	%eax, %edi
	jmp	L1313
	.p2align 4,,10
L1341:
	movl	52(%esp), %eax
	movl	%eax, 8(%esp)
	movl	56(%esp), %eax
	movl	%eax, 4(%esp)
	movl	44(%esp), %eax
	movl	%eax, (%esp)
	call	__ZN5CCore4Math15IntegerFastAlgo4USubEPjPKjS4_j
	movb	$1, 80(%esp)
	jmp	L1298
L1347:
	movl	%edi, %eax
	.p2align 4,,10
L1289:
	movl	%eax, 12(%esp)
	cmpl	%edx, %ecx
	jbe	L1292
	movl	60(%esp), %eax
	movl	%ebp, 8(%esp)
	movl	%eax, 4(%esp)
	movl	40(%esp), %eax
	movl	%eax, (%esp)
	call	__ZN5CCore4Math15IntegerFastAlgo4USubEPjPKjS4_j
	movb	$1, 80(%esp)
	movl	76(%esp), %esi
	jmp	L1282
	.p2align 4,,10
L1346:
	movl	84(%esp), %edi
	movl	88(%esp), %ebp
L1283:
	movl	%eax, 12(%esp)
	cmpl	%edx, %ecx
	jbe	L1286
	movl	52(%esp), %eax
	movl	%eax, 8(%esp)
	movl	56(%esp), %eax
	movl	%eax, 4(%esp)
	movl	44(%esp), %eax
	movl	%eax, (%esp)
	call	__ZN5CCore4Math15IntegerFastAlgo4USubEPjPKjS4_j
	movb	$1, 84(%esp)
	jmp	L1287
	.p2align 4,,10
L1310:
	movl	60(%esp), %eax
	movl	%ebp, 4(%esp)
	movl	%eax, 8(%esp)
	movl	40(%esp), %eax
	movl	%eax, (%esp)
	call	__ZN5CCore4Math15IntegerFastAlgo4USubEPjPKjS4_j
	movb	$0, 76(%esp)
	movl	40(%esp), %esi
	movl	44(%esp), %ecx
	jmp	L1296
	.p2align 4,,10
L1348:
	call	__ZN5CCore4Math15IntegerFastAlgo4USubEPjPKjj
	subl	%eax, %esi
	jmp	L1295
	.p2align 4,,10
L1342:
	movl	60(%esp), %eax
	movl	%esi, 12(%esp)
	movl	%ebp, 4(%esp)
	movl	%ecx, 88(%esp)
	movl	%edx, 76(%esp)
	movl	%eax, 8(%esp)
	movl	40(%esp), %eax
	movl	%eax, (%esp)
	call	__ZN5CCore4Math15IntegerFastAlgo4USubEPjPKjS4_j
	movl	88(%esp), %ecx
	movl	76(%esp), %edx
	movb	$0, 76(%esp)
	movl	40(%esp), %esi
	subl	%eax, %ecx
	movl	%ecx, (%edx)
	movl	44(%esp), %ecx
	jmp	L1296
	.p2align 4,,10
L1338:
	movl	56(%esp), %eax
	movl	%esi, 12(%esp)
	movl	%ecx, 80(%esp)
	movl	%edx, 72(%esp)
	movl	%eax, 8(%esp)
	movl	52(%esp), %eax
	movl	%eax, 4(%esp)
	movl	44(%esp), %eax
	movl	%eax, (%esp)
	call	__ZN5CCore4Math15IntegerFastAlgo4USubEPjPKjS4_j
	movl	80(%esp), %ecx
	movb	$0, 80(%esp)
	movl	72(%esp), %edx
	subl	%eax, %ecx
	leal	-8(%ebx), %eax
	movl	%ecx, (%edx)
	movl	%eax, 72(%esp)
	jmp	L1298
	.p2align 4,,10
L1292:
	movl	60(%esp), %eax
	movl	%ebp, 4(%esp)
	movl	%eax, 8(%esp)
	movl	40(%esp), %eax
	movl	%eax, (%esp)
	call	__ZN5CCore4Math15IntegerFastAlgo4USubEPjPKjS4_j
	movb	$0, 80(%esp)
	movl	76(%esp), %esi
	jmp	L1282
	.p2align 4,,10
L1286:
	movl	56(%esp), %eax
	movl	%eax, 8(%esp)
	movl	52(%esp), %eax
	movl	%eax, 4(%esp)
	movl	44(%esp), %eax
	movl	%eax, (%esp)
	call	__ZN5CCore4Math15IntegerFastAlgo4USubEPjPKjS4_j
	movb	$0, 84(%esp)
	jmp	L1287
L1314:
	movb	$0, 84(%esp)
	movl	%ecx, %esi
	movb	$0, 80(%esp)
	jmp	L1282
L1345:
	movl	%edi, %eax
	jmp	L1283
L1339:
	movl	%esi, %eax
	jmp	L1300
L1343:
	movl	76(%esp), %ebx
	movb	$0, 76(%esp)
	movl	40(%esp), %esi
	movl	44(%esp), %ecx
	jmp	L1296
L1319:
	movb	$0, 76(%esp)
	movl	40(%esp), %esi
	movl	44(%esp), %ecx
	jmp	L1296
L1340:
	movl	80(%esp), %ebx
	movl	88(%esp), %edi
	movl	92(%esp), %esi
L1299:
	movb	$0, 80(%esp)
	jmp	L1298
	.cfi_endproc
LFE5051:
	.section	.text$_ZN5CCore4Math11FastMulAlgoIN3App12Private_60054BaseELb0EE9Toom22MulEPjPKjS8_j,"x"
	.linkonce discard
	.p2align 4,,15
	.globl	__ZN5CCore4Math11FastMulAlgoIN3App12Private_60054BaseELb0EE9Toom22MulEPjPKjS8_j
	.def	__ZN5CCore4Math11FastMulAlgoIN3App12Private_60054BaseELb0EE9Toom22MulEPjPKjS8_j;	.scl	2;	.type	32;	.endef
__ZN5CCore4Math11FastMulAlgoIN3App12Private_60054BaseELb0EE9Toom22MulEPjPKjS8_j:
LFB5028:
	.cfi_startproc
	.cfi_personality 0,___gxx_personality_v0
	.cfi_lsda 0,LLSDA5028
	pushl	%esi
	.cfi_def_cfa_offset 8
	.cfi_offset 6, -8
	pushl	%ebx
	.cfi_def_cfa_offset 12
	.cfi_offset 3, -12
	subl	$1076, %esp
	.cfi_def_cfa_offset 1088
	movl	1100(%esp), %esi
	leal	40(%esp), %ebx
	movl	%esi, (%esp)
LEHB5:
	call	__ZN5CCore4Math11FastMulAlgoIN3App12Private_60054BaseELb0EE16Toom22MulTempLenEj
	movl	%ebx, (%esp)
	movl	%eax, 4(%esp)
	call	__ZN5CCore4Math11FastMulAlgoIN3App12Private_60054BaseELb0EE4TempC1Ej
LEHE5:
	movl	1064(%esp), %eax
	movl	%esi, 12(%esp)
	movl	%eax, 16(%esp)
	movl	1096(%esp), %eax
	movl	%eax, 8(%esp)
	movl	1092(%esp), %eax
	movl	%eax, 4(%esp)
	movl	1088(%esp), %eax
	movl	%eax, (%esp)
LEHB6:
	call	__ZN5CCore4Math11FastMulAlgoIN3App12Private_60054BaseELb0EE9Toom22MulEPjPKjS8_jNS5_10UnsafeWorkE
LEHE6:
	movl	1064(%esp), %eax
	cmpl	%ebx, %eax
	je	L1355
	movl	%eax, (%esp)
	call	__ZN5CCore16TaskMemStackFreeEPv
L1355:
	addl	$1076, %esp
	.cfi_remember_state
	.cfi_def_cfa_offset 12
	popl	%ebx
	.cfi_restore 3
	.cfi_def_cfa_offset 8
	popl	%esi
	.cfi_restore 6
	.cfi_def_cfa_offset 4
	ret
L1353:
	.cfi_restore_state
	movl	1064(%esp), %edx
	movl	%eax, %esi
	cmpl	%ebx, %edx
	je	L1354
	movl	%edx, (%esp)
	vzeroupper
	call	__ZN5CCore16TaskMemStackFreeEPv
L1352:
	movl	%esi, (%esp)
LEHB7:
	call	__Unwind_Resume
LEHE7:
L1354:
	vzeroupper
	jmp	L1352
	.cfi_endproc
LFE5028:
	.section	.gcc_except_table,"w"
LLSDA5028:
	.byte	0xff
	.byte	0xff
	.byte	0x1
	.uleb128 LLSDACSE5028-LLSDACSB5028
LLSDACSB5028:
	.uleb128 LEHB5-LFB5028
	.uleb128 LEHE5-LEHB5
	.uleb128 0
	.uleb128 0
	.uleb128 LEHB6-LFB5028
	.uleb128 LEHE6-LEHB6
	.uleb128 L1353-LFB5028
	.uleb128 0
	.uleb128 LEHB7-LFB5028
	.uleb128 LEHE7-LEHB7
	.uleb128 0
	.uleb128 0
LLSDACSE5028:
	.section	.text$_ZN5CCore4Math11FastMulAlgoIN3App12Private_60054BaseELb0EE9Toom22MulEPjPKjS8_j,"x"
	.linkonce discard
	.section	.text$_ZN5CCore4Math11FastMulAlgoIN3App12Private_60054BaseELb0EE9Toom33MulEPjPKjS8_jNS5_10UnsafeWorkE,"x"
	.linkonce discard
	.p2align 4,,15
	.globl	__ZN5CCore4Math11FastMulAlgoIN3App12Private_60054BaseELb0EE9Toom33MulEPjPKjS8_jNS5_10UnsafeWorkE
	.def	__ZN5CCore4Math11FastMulAlgoIN3App12Private_60054BaseELb0EE9Toom33MulEPjPKjS8_jNS5_10UnsafeWorkE;	.scl	2;	.type	32;	.endef
__ZN5CCore4Math11FastMulAlgoIN3App12Private_60054BaseELb0EE9Toom33MulEPjPKjS8_jNS5_10UnsafeWorkE:
LFB5052:
	.cfi_startproc
	pushl	%ebp
	.cfi_def_cfa_offset 8
	.cfi_offset 5, -8
	movl	$-1431655765, %ecx
	pushl	%edi
	.cfi_def_cfa_offset 12
	.cfi_offset 7, -12
	pushl	%esi
	.cfi_def_cfa_offset 16
	.cfi_offset 6, -16
	pushl	%ebx
	.cfi_def_cfa_offset 20
	.cfi_offset 3, -20
	subl	$156, %esp
	.cfi_def_cfa_offset 176
	movl	176(%esp), %eax
	movl	188(%esp), %esi
	movl	184(%esp), %edi
	movl	192(%esp), %ebp
	movl	%eax, 76(%esp)
	movl	180(%esp), %eax
	leal	2(%esi), %edx
	movl	%esi, 128(%esp)
	movl	%edi, 72(%esp)
	movl	%ebp, 56(%esp)
	movl	%eax, 68(%esp)
	movl	%edx, %eax
	mull	%ecx
	shrl	%edx
	leal	(%edx,%edx), %ebx
	movl	%edx, %eax
	addl	$1, %edx
	subl	%ebx, %esi
	movl	%ebx, 96(%esp)
	addl	$2, %ebx
	movl	%ebx, %edi
	movl	%eax, 36(%esp)
	movl	%edx, 64(%esp)
	movl	72(%esp), %edx
	movl	%ebx, 52(%esp)
	leal	0(,%eax,4), %ebx
	movl	68(%esp), %eax
	movl	%esi, 44(%esp)
	leal	(%eax,%ebx), %ecx
	leal	(%edx,%ebx), %eax
	movl	%ecx, 84(%esp)
	leal	(%ecx,%ebx), %edx
	movl	%eax, 88(%esp)
	leal	(%eax,%ebx), %ecx
	movl	36(%esp), %eax
	movl	%edx, 104(%esp)
	movl	%ecx, 100(%esp)
	sall	$4, %eax
	addl	76(%esp), %eax
	movl	%eax, 60(%esp)
	leal	0(,%edi,4), %eax
	addl	%eax, %ebp
	movl	%eax, 124(%esp)
	movl	%ebp, 116(%esp)
	addl	%eax, %ebp
	movl	%ebp, 48(%esp)
	addl	%eax, %ebp
	leal	0(%ebp,%eax), %ecx
	movl	%ecx, %edx
	movl	%ecx, 40(%esp)
	addl	%eax, %edx
	leal	4(%ebx), %eax
	movl	%edx, 112(%esp)
	leal	0(%ebp,%eax), %edi
	addl	%ecx, %eax
	movl	72(%esp), %ecx
	movl	%edx, 16(%esp)
	movl	%edi, 108(%esp)
	movl	%edx, %edi
	movl	36(%esp), %edx
	movl	%eax, 80(%esp)
	movl	68(%esp), %eax
	movl	%ecx, 8(%esp)
	movl	76(%esp), %ecx
	movl	%edx, 12(%esp)
	movl	%eax, 4(%esp)
	movl	%ecx, (%esp)
	call	__ZN5CCore4Math11FastMulAlgoIN3App12Private_60054BaseELb0EE4UMulEPjPKjS8_jNS5_10UnsafeWorkE
	movl	100(%esp), %ecx
	movl	%edi, 16(%esp)
	leal	0(%ebp,%ebx), %edi
	movl	60(%esp), %eax
	movl	%esi, 12(%esp)
	movl	%ecx, 8(%esp)
	movl	104(%esp), %ecx
	movl	%eax, (%esp)
	movl	%ecx, 4(%esp)
	call	__ZN5CCore4Math11FastMulAlgoIN3App12Private_60054BaseELb0EE4UMulEPjPKjS8_jNS5_10UnsafeWorkE
	movl	104(%esp), %ecx
	movl	%esi, 12(%esp)
	movl	68(%esp), %edx
	movl	%ebp, (%esp)
	movl	%edi, 120(%esp)
	movl	%esi, %edi
	movl	%ecx, 8(%esp)
	movl	%edx, 4(%esp)
	call	__ZN5CCore4Math15IntegerFastAlgo4UAddEPjPKjS4_j
	movl	%eax, %esi
	cmpl	%edi, 36(%esp)
	jbe	L1358
	movl	44(%esp), %eax
	movl	36(%esp), %ecx
	subl	%eax, %ecx
	sall	$2, %eax
	leal	0(%ebp,%eax), %edx
	addl	68(%esp), %eax
	movl	%ecx, 8(%esp)
	movl	%edx, (%esp)
	movl	%ecx, 132(%esp)
	movl	%edx, 92(%esp)
	movl	%eax, 4(%esp)
	call	__ZN5CCore4Math15IntegerFastAlgo4CopyEPjPKjj
	movl	132(%esp), %ecx
	movl	%esi, 8(%esp)
	movl	92(%esp), %edx
	movl	%ecx, 4(%esp)
	movl	%edx, (%esp)
	call	__ZN5CCore4Math15IntegerFastAlgo8UAddUnitEPjjj
	movl	%eax, %esi
L1358:
	movl	84(%esp), %edi
	leal	0(%ebp,%ebx), %eax
	movl	%esi, (%eax)
	movl	36(%esp), %eax
	movl	%ebp, 4(%esp)
	movl	%edi, 8(%esp)
	movl	108(%esp), %edi
	movl	%eax, 12(%esp)
	movl	%edi, (%esp)
	call	__ZN5CCore4Math15IntegerFastAlgo4UAddEPjPKjS4_j
	addl	%eax, %esi
	movl	36(%esp), %eax
	movl	%esi, (%edi,%eax,4)
	leal	0(%ebp,%ebx), %eax
	movl	(%eax), %esi
	movl	40(%esp), %eax
	addl	%ebx, %eax
	movl	%eax, 92(%esp)
	testl	%esi, %esi
	jne	L1395
	movl	36(%esp), %edx
	testl	%edx, %edx
	je	L1360
	movl	84(%esp), %eax
	leal	-4(%ebp,%ebx), %esi
	movl	(%esi), %ecx
	movl	-4(%eax,%ebx), %edx
	cmpl	%ecx, %edx
	jne	L1396
	movl	36(%esp), %edi
	movl	%ebx, 36(%esp)
	movl	84(%esp), %ebx
	leal	0(,%edi,4), %eax
	subl	%eax, %esi
	movl	%edi, %eax
	.p2align 4,,10
L1363:
	movl	$0, (%esi,%eax,4)
	subl	$1, %eax
	je	L1397
	movl	-4(%ebp,%eax,4), %ecx
	movl	-4(%ebx,%eax,4), %edx
	cmpl	%edx, %ecx
	je	L1363
	movl	36(%esp), %ebx
	movl	%edi, 36(%esp)
L1361:
	movl	%eax, 8(%esp)
	movl	84(%esp), %eax
	movl	%ebp, (%esp)
	movl	%eax, 4(%esp)
	cmpl	%edx, %ecx
	jnb	L1364
	call	__ZN5CCore4Math15IntegerFastAlgo7URevSubEPjPKjj
	movb	$1, 132(%esp)
L1359:
	movl	100(%esp), %edi
	movl	44(%esp), %eax
	movl	%edi, 8(%esp)
	movl	72(%esp), %edi
	movl	%eax, 12(%esp)
	movl	%edi, 4(%esp)
	movl	40(%esp), %edi
	movl	%edi, (%esp)
	call	__ZN5CCore4Math15IntegerFastAlgo4UAddEPjPKjS4_j
	movl	%eax, %esi
	movl	44(%esp), %eax
	cmpl	%eax, 36(%esp)
	jbe	L1366
	movl	36(%esp), %ecx
	movl	40(%esp), %edi
	subl	%eax, %ecx
	sall	$2, %eax
	leal	(%edi,%eax), %edx
	addl	72(%esp), %eax
	movl	%ecx, 8(%esp)
	movl	%edx, (%esp)
	movl	%ecx, 140(%esp)
	movl	%edx, 136(%esp)
	movl	%eax, 4(%esp)
	call	__ZN5CCore4Math15IntegerFastAlgo4CopyEPjPKjj
	movl	140(%esp), %ecx
	movl	%esi, 8(%esp)
	movl	136(%esp), %edx
	movl	%ecx, 4(%esp)
	movl	%edx, (%esp)
	call	__ZN5CCore4Math15IntegerFastAlgo8UAddUnitEPjjj
	movl	%eax, %esi
L1366:
	movl	92(%esp), %eax
	movl	88(%esp), %edi
	movl	%esi, (%eax)
	movl	36(%esp), %eax
	movl	%edi, 8(%esp)
	movl	40(%esp), %edi
	movl	%eax, 12(%esp)
	movl	%edi, 4(%esp)
	movl	80(%esp), %edi
	movl	%edi, (%esp)
	call	__ZN5CCore4Math15IntegerFastAlgo4UAddEPjPKjS4_j
	addl	%eax, %esi
	movl	36(%esp), %eax
	movl	%esi, (%edi,%eax,4)
	movl	92(%esp), %eax
	movl	(%eax), %esi
	testl	%esi, %esi
	jne	L1380
	movl	36(%esp), %eax
	testl	%eax, %eax
	je	L1368
	movl	40(%esp), %eax
	movl	88(%esp), %edi
	leal	-4(%eax,%ebx), %eax
	movl	(%eax), %edx
	movl	-4(%edi,%ebx), %ecx
	cmpl	%edx, %ecx
	jne	L1398
	movl	36(%esp), %ecx
	movl	%edi, %esi
	movl	40(%esp), %edi
	leal	0(,%ecx,4), %edx
	subl	%edx, %eax
	movl	%eax, %ebx
	movl	%ecx, %eax
	.p2align 4,,10
L1371:
	movl	$0, (%ebx,%eax,4)
	subl	$1, %eax
	je	L1399
	movl	-4(%edi,%eax,4), %edx
	movl	-4(%esi,%eax,4), %ecx
	cmpl	%ecx, %edx
	je	L1371
L1369:
	movl	%eax, 8(%esp)
	movl	88(%esp), %eax
	movl	%eax, 4(%esp)
	movl	40(%esp), %eax
	movl	%eax, (%esp)
	cmpl	%edx, %ecx
	jbe	L1372
	call	__ZN5CCore4Math15IntegerFastAlgo7URevSubEPjPKjj
	movb	$1, 136(%esp)
L1367:
	movl	64(%esp), %ebx
	movl	%ebp, 4(%esp)
	movl	112(%esp), %esi
	movl	40(%esp), %eax
	movl	116(%esp), %edi
	movl	%ebx, 12(%esp)
	movl	%esi, 16(%esp)
	movl	%eax, 8(%esp)
	movl	%edi, (%esp)
	call	__ZN5CCore4Math11FastMulAlgoIN3App12Private_60054BaseELb0EE4UMulEPjPKjS8_jNS5_10UnsafeWorkE
	movl	80(%esp), %eax
	movl	%esi, 16(%esp)
	movl	56(%esp), %edi
	movl	%ebx, 12(%esp)
	movl	108(%esp), %esi
	movl	%ebx, 64(%esp)
	movl	%eax, 8(%esp)
	movl	%edi, (%esp)
	movl	%esi, 4(%esp)
	call	__ZN5CCore4Math11FastMulAlgoIN3App12Private_60054BaseELb0EE4UMulEPjPKjS8_jNS5_10UnsafeWorkE
	movl	84(%esp), %edi
	movl	$1, 12(%esp)
	movl	36(%esp), %eax
	movl	%esi, (%esp)
	movl	%edi, 4(%esp)
	movl	%eax, 8(%esp)
	call	__ZN5CCore4Math15IntegerFastAlgo7ULShiftEPjPKjjj
	movl	68(%esp), %edi
	movl	%esi, 8(%esp)
	movl	%eax, %ebx
	movl	36(%esp), %eax
	movl	%ebp, (%esp)
	movl	%edi, 4(%esp)
	movl	%eax, 12(%esp)
	call	__ZN5CCore4Math15IntegerFastAlgo4UAddEPjPKjS4_j
	movl	120(%esp), %edi
	addl	%eax, %ebx
	movl	44(%esp), %edx
	movl	%ebx, (%edi)
	cmpl	%edx, 36(%esp)
	ja	L1400
L1374:
	movl	36(%esp), %esi
	movl	$2, 12(%esp)
	movl	108(%esp), %edi
	movl	104(%esp), %eax
	movl	%esi, 8(%esp)
	movl	%edi, (%esp)
	movl	%eax, 4(%esp)
	call	__ZN5CCore4Math15IntegerFastAlgo7ULShiftEPjPKjjj
	movl	%esi, 8(%esp)
	movl	%edi, 4(%esp)
	movl	%eax, %ebx
	movl	%esi, %edi
	movl	%ebp, (%esp)
	call	__ZN5CCore4Math15IntegerFastAlgo4UAddEPjPKjj
	addl	%eax, %ebx
	movl	120(%esp), %eax
	addl	%ebx, (%eax)
	movl	%esi, 8(%esp)
	movl	88(%esp), %eax
	movl	$1, 12(%esp)
	movl	80(%esp), %esi
	movl	%eax, 4(%esp)
	movl	%esi, (%esp)
	call	__ZN5CCore4Math15IntegerFastAlgo7ULShiftEPjPKjjj
	movl	%edi, 36(%esp)
	movl	%eax, %ebx
	movl	%edi, 12(%esp)
	movl	72(%esp), %eax
	movl	40(%esp), %edi
	movl	%esi, 8(%esp)
	movl	%eax, 4(%esp)
	movl	%edi, (%esp)
	call	__ZN5CCore4Math15IntegerFastAlgo4UAddEPjPKjS4_j
	addl	%eax, %ebx
	movl	92(%esp), %eax
	movl	%ebx, (%eax)
	movl	100(%esp), %ebx
	movl	36(%esp), %eax
	movl	$2, 12(%esp)
	movl	%esi, (%esp)
	movl	%ebx, 4(%esp)
	movl	%eax, 8(%esp)
	call	__ZN5CCore4Math15IntegerFastAlgo7ULShiftEPjPKjjj
	movl	%esi, 4(%esp)
	movl	%eax, %ebx
	movl	36(%esp), %eax
	movl	%edi, (%esp)
	movl	%eax, 8(%esp)
	call	__ZN5CCore4Math15IntegerFastAlgo4UAddEPjPKjj
	addl	%eax, %ebx
	movl	92(%esp), %eax
	addl	%ebx, (%eax)
L1375:
	movl	112(%esp), %eax
	movl	%ebp, 4(%esp)
	movl	%eax, 16(%esp)
	movl	64(%esp), %eax
	movl	%eax, 12(%esp)
	movl	40(%esp), %eax
	movl	%eax, 8(%esp)
	movl	48(%esp), %eax
	movl	%eax, (%esp)
	call	__ZN5CCore4Math11FastMulAlgoIN3App12Private_60054BaseELb0EE4UMulEPjPKjS8_jNS5_10UnsafeWorkE
	movl	52(%esp), %eax
	movzbl	132(%esp), %ecx
	cmpb	%cl, 136(%esp)
	movl	%eax, 12(%esp)
	movl	116(%esp), %eax
	movl	%eax, 8(%esp)
	movl	56(%esp), %eax
	movl	%eax, 4(%esp)
	movl	40(%esp), %eax
	movl	%eax, (%esp)
	je	L1401
	call	__ZN5CCore4Math15IntegerFastAlgo4UAddEPjPKjS4_j
L1377:
	movl	52(%esp), %ebx
	movl	$1, 8(%esp)
	movl	40(%esp), %esi
	movl	%ebx, 4(%esp)
	movl	%esi, (%esp)
	call	__ZN5CCore4Math15IntegerFastAlgo7URShiftEPjjj
	movl	56(%esp), %edi
	movl	%ebx, 8(%esp)
	movl	%esi, 4(%esp)
	movl	%ebx, 52(%esp)
	movl	%esi, 40(%esp)
	movl	%edi, (%esp)
	call	__ZN5CCore4Math15IntegerFastAlgo4USubEPjPKjj
	movl	96(%esp), %ecx
	movl	%edi, (%esp)
	movl	76(%esp), %edx
	movl	%ecx, 8(%esp)
	movl	%edx, 4(%esp)
	call	__ZN5CCore4Math15IntegerFastAlgo4USubEPjPKjj
	movl	124(%esp), %edx
	movl	$2, 4(%esp)
	movl	%eax, 8(%esp)
	subl	$8, %edx
	leal	(%edi,%edx), %ecx
	movl	%edx, 72(%esp)
	movl	%ecx, (%esp)
	movl	%ecx, 68(%esp)
	call	__ZN5CCore4Math15IntegerFastAlgo8USubUnitEPjjj
	movl	44(%esp), %edx
	movl	%edi, (%esp)
	leal	(%edx,%edx), %ebx
	movl	60(%esp), %edx
	movl	%ebx, 8(%esp)
	movl	%edx, 4(%esp)
	call	__ZN5CCore4Math15IntegerFastAlgo4USubEPjPKjj
	movl	44(%esp), %ecx
	movl	%edi, 56(%esp)
	movl	%eax, 8(%esp)
	movl	52(%esp), %eax
	leal	0(,%ecx,8), %esi
	subl	%ebx, %eax
	movl	%eax, 4(%esp)
	leal	(%edi,%esi), %eax
	addl	%ebp, %esi
	movl	%eax, (%esp)
	call	__ZN5CCore4Math15IntegerFastAlgo8USubUnitEPjjj
	movl	96(%esp), %ecx
	movl	48(%esp), %edi
	movl	%ecx, 8(%esp)
	movl	76(%esp), %ecx
	movl	%edi, (%esp)
	movl	%ecx, 4(%esp)
	call	__ZN5CCore4Math15IntegerFastAlgo4USubEPjPKjj
	movl	72(%esp), %edx
	movl	%edi, 48(%esp)
	movl	%eax, 8(%esp)
	movl	$2, 4(%esp)
	leal	(%edi,%edx), %eax
	movl	%eax, (%esp)
	call	__ZN5CCore4Math15IntegerFastAlgo8USubUnitEPjjj
	movl	52(%esp), %edi
	movl	$1, 8(%esp)
	movl	48(%esp), %ecx
	movl	%edi, 4(%esp)
	movl	%ecx, (%esp)
	call	__ZN5CCore4Math15IntegerFastAlgo7URShiftEPjjj
	movl	48(%esp), %ecx
	movl	%edi, 8(%esp)
	movl	40(%esp), %edx
	movl	%ecx, (%esp)
	movl	%edx, 4(%esp)
	call	__ZN5CCore4Math15IntegerFastAlgo4USubEPjPKjj
	movl	56(%esp), %edx
	movl	%ebp, (%esp)
	movl	%edi, 8(%esp)
	movl	$1, 12(%esp)
	movl	%edx, 4(%esp)
	call	__ZN5CCore4Math15IntegerFastAlgo7ULShiftEPjPKjjj
	movl	%edi, 52(%esp)
	movl	%edi, 8(%esp)
	movl	48(%esp), %edi
	movl	%ebp, 4(%esp)
	movl	%edi, (%esp)
	call	__ZN5CCore4Math15IntegerFastAlgo4USubEPjPKjj
	movl	60(%esp), %eax
	movl	%ebp, (%esp)
	movl	%ebx, 8(%esp)
	movl	$3, 12(%esp)
	movl	%eax, 4(%esp)
	call	__ZN5CCore4Math15IntegerFastAlgo7ULShiftEPjPKjjj
	movl	%eax, (%esi)
	leal	1(%ebx), %esi
	movl	%esi, 8(%esp)
	movl	%ebp, 4(%esp)
	movl	%edi, (%esp)
	call	__ZN5CCore4Math15IntegerFastAlgo4USubEPjPKjj
	movl	52(%esp), %ebp
	movl	%eax, 8(%esp)
	movl	%ebp, %eax
	subl	%esi, %eax
	movl	%eax, 4(%esp)
	leal	(%edi,%esi,4), %eax
	movl	%ebp, %esi
	movl	%eax, (%esp)
	call	__ZN5CCore4Math15IntegerFastAlgo8USubUnitEPjjj
	movl	%ebp, 4(%esp)
	movl	%edi, (%esp)
	call	__ZN5CCore4Math15IntegerFastAlgo5UDiv3EPjj
	movl	64(%esp), %eax
	movl	%edi, 48(%esp)
	addl	44(%esp), %eax
	movl	%edi, 4(%esp)
	movl	40(%esp), %edi
	movl	%eax, 8(%esp)
	movl	%eax, %ebp
	movl	%edi, (%esp)
	call	__ZN5CCore4Math15IntegerFastAlgo4USubEPjPKjj
	leal	0(,%ebp,4), %edx
	movl	%edi, 40(%esp)
	movl	%eax, 8(%esp)
	movl	%esi, %eax
	subl	%ebp, %eax
	movl	%edx, 52(%esp)
	movl	%eax, 4(%esp)
	movl	%edi, %eax
	addl	%edx, %eax
	movl	%eax, (%esp)
	call	__ZN5CCore4Math15IntegerFastAlgo8USubUnitEPjjj
	movl	36(%esp), %esi
	movl	96(%esp), %edi
	movl	56(%esp), %edx
	negl	%esi
	movl	%esi, %eax
	movl	60(%esp), %esi
	movl	%edi, 8(%esp)
	movl	%edx, 4(%esp)
	leal	(%esi,%eax,8), %esi
	movl	%esi, (%esp)
	call	__ZN5CCore4Math15IntegerFastAlgo4CopyEPjPKjj
	movl	68(%esp), %ecx
	movl	(%ecx), %eax
	movl	%ebx, 4(%esp)
	movl	60(%esp), %ebx
	movl	%eax, 8(%esp)
	movl	%ebx, (%esp)
	call	__ZN5CCore4Math15IntegerFastAlgo8UAddUnitEPjjj
	movl	128(%esp), %ebx
	leal	1(%edi), %ecx
	movl	36(%esp), %eax
	movl	%ecx, 8(%esp)
	movl	%ecx, 44(%esp)
	addl	%ebx, %ebx
	subl	%eax, %ebx
	sall	$2, %eax
	subl	%eax, %esi
	movl	40(%esp), %eax
	movl	%esi, (%esp)
	movl	%eax, 4(%esp)
	call	__ZN5CCore4Math15IntegerFastAlgo4UAddEPjPKjj
	movl	44(%esp), %ecx
	movl	%ebx, %edx
	subl	%edi, %ebx
	movl	%eax, 8(%esp)
	subl	%ebp, %ebx
	leal	(%esi,%ecx,4), %eax
	subl	%ecx, %edx
	movl	%edx, 4(%esp)
	movl	%eax, (%esp)
	call	__ZN5CCore4Math15IntegerFastAlgo8UAddUnitEPjjj
	movl	36(%esp), %eax
	movl	%ebp, 8(%esp)
	movl	48(%esp), %ecx
	leal	(%esi,%eax,8), %esi
	movl	%esi, (%esp)
	movl	%ecx, 4(%esp)
	call	__ZN5CCore4Math15IntegerFastAlgo4UAddEPjPKjj
	movl	52(%esp), %edx
	movl	%ebx, 180(%esp)
	movl	%eax, 184(%esp)
	addl	%esi, %edx
	movl	%edx, 176(%esp)
	addl	$156, %esp
	.cfi_remember_state
	.cfi_def_cfa_offset 20
	popl	%ebx
	.cfi_restore 3
	.cfi_def_cfa_offset 16
	popl	%esi
	.cfi_restore 6
	.cfi_def_cfa_offset 12
	popl	%edi
	.cfi_restore 7
	.cfi_def_cfa_offset 8
	popl	%ebp
	.cfi_restore 5
	.cfi_def_cfa_offset 4
	jmp	__ZN5CCore4Math15IntegerFastAlgo8UAddUnitEPjjj
	.p2align 4,,10
L1400:
	.cfi_restore_state
	movl	104(%esp), %edi
	leal	0(,%edx,4), %ecx
	movl	%esi, (%esp)
	movl	%esi, %ebx
	movl	%edx, 8(%esp)
	addl	%ecx, %ebx
	movl	$2, 12(%esp)
	movl	%ecx, 68(%esp)
	movl	%edi, 4(%esp)
	movl	%esi, %edi
	call	__ZN5CCore4Math15IntegerFastAlgo7ULShiftEPjPKjjj
	movl	44(%esp), %edx
	movl	%eax, (%ebx)
	movl	%edi, 4(%esp)
	movl	%ebp, (%esp)
	leal	1(%edx), %esi
	movl	%esi, 8(%esp)
	call	__ZN5CCore4Math15IntegerFastAlgo4UAddEPjPKjj
	movl	68(%esp), %ebx
	movl	64(%esp), %ecx
	movl	%eax, 8(%esp)
	leal	4(%ebx), %edx
	leal	0(%ebp,%edx), %eax
	subl	%esi, %ecx
	movl	%edx, 84(%esp)
	movl	%ecx, 4(%esp)
	movl	%eax, (%esp)
	movl	%ecx, 104(%esp)
	call	__ZN5CCore4Math15IntegerFastAlgo8UAddUnitEPjjj
	movl	88(%esp), %edi
	movl	$1, 12(%esp)
	movl	36(%esp), %eax
	movl	%edi, 4(%esp)
	movl	80(%esp), %edi
	movl	%eax, 8(%esp)
	movl	%edi, (%esp)
	call	__ZN5CCore4Math15IntegerFastAlgo7ULShiftEPjPKjjj
	movl	40(%esp), %ecx
	movl	%edi, 80(%esp)
	movl	%edi, 8(%esp)
	movl	%eax, %ebx
	movl	72(%esp), %edi
	movl	36(%esp), %eax
	movl	%ecx, (%esp)
	movl	%edi, 4(%esp)
	movl	%eax, 12(%esp)
	call	__ZN5CCore4Math15IntegerFastAlgo4UAddEPjPKjS4_j
	movl	92(%esp), %edi
	addl	%eax, %ebx
	movl	44(%esp), %edx
	movl	80(%esp), %eax
	movl	%ebx, (%edi)
	movl	100(%esp), %edi
	movl	68(%esp), %ebx
	movl	%edx, 8(%esp)
	movl	$2, 12(%esp)
	movl	%eax, (%esp)
	movl	%edi, 4(%esp)
	movl	%eax, %edi
	addl	%eax, %ebx
	call	__ZN5CCore4Math15IntegerFastAlgo7ULShiftEPjPKjjj
	movl	%eax, (%ebx)
	movl	40(%esp), %ebx
	movl	%esi, 8(%esp)
	movl	%edi, 4(%esp)
	movl	%ebx, (%esp)
	call	__ZN5CCore4Math15IntegerFastAlgo4UAddEPjPKjj
	movl	84(%esp), %edx
	movl	104(%esp), %ecx
	movl	%eax, 8(%esp)
	addl	%ebx, %edx
	movl	%ecx, 4(%esp)
	movl	%edx, (%esp)
	call	__ZN5CCore4Math15IntegerFastAlgo8UAddUnitEPjjj
	jmp	L1375
	.p2align 4,,10
L1401:
	call	__ZN5CCore4Math15IntegerFastAlgo4USubEPjPKjS4_j
	jmp	L1377
	.p2align 4,,10
L1372:
	call	__ZN5CCore4Math15IntegerFastAlgo4USubEPjPKjj
	movb	$0, 136(%esp)
	jmp	L1367
	.p2align 4,,10
L1364:
	call	__ZN5CCore4Math15IntegerFastAlgo4USubEPjPKjj
	movb	$0, 132(%esp)
	jmp	L1359
L1360:
	movl	44(%esp), %eax
	movl	40(%esp), %edi
	movl	%eax, 12(%esp)
	movl	100(%esp), %eax
	movl	%edi, (%esp)
	movl	%eax, 8(%esp)
	movl	72(%esp), %eax
	movl	%eax, 4(%esp)
	call	__ZN5CCore4Math15IntegerFastAlgo4UAddEPjPKjS4_j
	movl	92(%esp), %esi
	movl	%eax, %ebx
	movl	%eax, (%esi)
	movl	88(%esp), %eax
	movl	%edi, 4(%esp)
	movl	80(%esp), %edi
	movl	$0, 12(%esp)
	movl	%eax, 8(%esp)
	movl	%edi, (%esp)
	call	__ZN5CCore4Math15IntegerFastAlgo4UAddEPjPKjS4_j
	movb	$0, 132(%esp)
	addl	%ebx, %eax
	movl	%eax, (%edi)
	movl	(%esi), %esi
	testl	%esi, %esi
	je	L1368
	.p2align 4,,10
L1380:
	movl	36(%esp), %eax
	movl	%eax, 8(%esp)
	movl	88(%esp), %eax
	movl	%eax, 4(%esp)
	movl	40(%esp), %eax
	movl	%eax, (%esp)
	call	__ZN5CCore4Math15IntegerFastAlgo4USubEPjPKjj
	movb	$0, 136(%esp)
	subl	%eax, %esi
	movl	92(%esp), %eax
	movl	%esi, (%eax)
	jmp	L1367
	.p2align 4,,10
L1395:
	movl	36(%esp), %eax
	movl	%ebp, (%esp)
	movl	%eax, 8(%esp)
	movl	84(%esp), %eax
	movl	%eax, 4(%esp)
	call	__ZN5CCore4Math15IntegerFastAlgo4USubEPjPKjj
	movb	$0, 132(%esp)
	subl	%eax, %esi
	leal	0(%ebp,%ebx), %eax
	movl	%esi, (%eax)
	jmp	L1359
	.p2align 4,,10
L1398:
	movl	36(%esp), %eax
	jmp	L1369
	.p2align 4,,10
L1396:
	movl	36(%esp), %eax
	jmp	L1361
L1368:
	movl	40(%esp), %eax
	movl	$1, 12(%esp)
	movl	112(%esp), %edi
	movl	%ebp, 4(%esp)
	movl	%eax, 8(%esp)
	movl	116(%esp), %eax
	movl	%edi, 16(%esp)
	movl	%eax, (%esp)
	call	__ZN5CCore4Math11FastMulAlgoIN3App12Private_60054BaseELb0EE4UMulEPjPKjS8_jNS5_10UnsafeWorkE
	movl	80(%esp), %eax
	movl	%edi, 16(%esp)
	movl	108(%esp), %edi
	movl	$1, 12(%esp)
	movl	%eax, 8(%esp)
	movl	56(%esp), %eax
	movl	%edi, 4(%esp)
	movl	%eax, (%esp)
	call	__ZN5CCore4Math11FastMulAlgoIN3App12Private_60054BaseELb0EE4UMulEPjPKjS8_jNS5_10UnsafeWorkE
	movl	84(%esp), %eax
	movl	$1, 12(%esp)
	movl	$0, 8(%esp)
	movl	%edi, (%esp)
	movl	%eax, 4(%esp)
	call	__ZN5CCore4Math15IntegerFastAlgo7ULShiftEPjPKjjj
	movl	$0, 12(%esp)
	movl	%eax, %ebx
	movl	68(%esp), %eax
	movl	%edi, 8(%esp)
	movl	%ebp, (%esp)
	movl	%eax, 4(%esp)
	call	__ZN5CCore4Math15IntegerFastAlgo4UAddEPjPKjS4_j
	movb	$0, 136(%esp)
	addl	%eax, %ebx
	movl	120(%esp), %eax
	movl	%ebx, (%eax)
	jmp	L1374
L1397:
	movl	36(%esp), %ebx
	movb	$0, 132(%esp)
	movl	%edi, 36(%esp)
	jmp	L1359
L1399:
	movb	$0, 136(%esp)
	jmp	L1367
	.cfi_endproc
LFE5052:
	.section	.text$_ZN5CCore4Math11FastMulAlgoIN3App12Private_60054BaseELb0EE9Toom33MulEPjPKjS8_j,"x"
	.linkonce discard
	.p2align 4,,15
	.globl	__ZN5CCore4Math11FastMulAlgoIN3App12Private_60054BaseELb0EE9Toom33MulEPjPKjS8_j
	.def	__ZN5CCore4Math11FastMulAlgoIN3App12Private_60054BaseELb0EE9Toom33MulEPjPKjS8_j;	.scl	2;	.type	32;	.endef
__ZN5CCore4Math11FastMulAlgoIN3App12Private_60054BaseELb0EE9Toom33MulEPjPKjS8_j:
LFB5029:
	.cfi_startproc
	.cfi_personality 0,___gxx_personality_v0
	.cfi_lsda 0,LLSDA5029
	pushl	%esi
	.cfi_def_cfa_offset 8
	.cfi_offset 6, -8
	pushl	%ebx
	.cfi_def_cfa_offset 12
	.cfi_offset 3, -12
	subl	$1076, %esp
	.cfi_def_cfa_offset 1088
	movl	1100(%esp), %esi
	leal	40(%esp), %ebx
	movl	%esi, (%esp)
LEHB8:
	call	__ZN5CCore4Math11FastMulAlgoIN3App12Private_60054BaseELb0EE16Toom33MulTempLenEj
	movl	%ebx, (%esp)
	movl	%eax, 4(%esp)
	call	__ZN5CCore4Math11FastMulAlgoIN3App12Private_60054BaseELb0EE4TempC1Ej
LEHE8:
	movl	1064(%esp), %eax
	movl	%esi, 12(%esp)
	movl	%eax, 16(%esp)
	movl	1096(%esp), %eax
	movl	%eax, 8(%esp)
	movl	1092(%esp), %eax
	movl	%eax, 4(%esp)
	movl	1088(%esp), %eax
	movl	%eax, (%esp)
LEHB9:
	call	__ZN5CCore4Math11FastMulAlgoIN3App12Private_60054BaseELb0EE9Toom33MulEPjPKjS8_jNS5_10UnsafeWorkE
LEHE9:
	movl	1064(%esp), %eax
	cmpl	%ebx, %eax
	je	L1408
	movl	%eax, (%esp)
	call	__ZN5CCore16TaskMemStackFreeEPv
L1408:
	addl	$1076, %esp
	.cfi_remember_state
	.cfi_def_cfa_offset 12
	popl	%ebx
	.cfi_restore 3
	.cfi_def_cfa_offset 8
	popl	%esi
	.cfi_restore 6
	.cfi_def_cfa_offset 4
	ret
L1406:
	.cfi_restore_state
	movl	1064(%esp), %edx
	movl	%eax, %esi
	cmpl	%ebx, %edx
	je	L1407
	movl	%edx, (%esp)
	vzeroupper
	call	__ZN5CCore16TaskMemStackFreeEPv
L1405:
	movl	%esi, (%esp)
LEHB10:
	call	__Unwind_Resume
LEHE10:
L1407:
	vzeroupper
	jmp	L1405
	.cfi_endproc
LFE5029:
	.section	.gcc_except_table,"w"
LLSDA5029:
	.byte	0xff
	.byte	0xff
	.byte	0x1
	.uleb128 LLSDACSE5029-LLSDACSB5029
LLSDACSB5029:
	.uleb128 LEHB8-LFB5029
	.uleb128 LEHE8-LEHB8
	.uleb128 0
	.uleb128 0
	.uleb128 LEHB9-LFB5029
	.uleb128 LEHE9-LEHB9
	.uleb128 L1406-LFB5029
	.uleb128 0
	.uleb128 LEHB10-LFB5029
	.uleb128 LEHE10-LEHB10
	.uleb128 0
	.uleb128 0
LLSDACSE5029:
	.section	.text$_ZN5CCore4Math11FastMulAlgoIN3App12Private_60054BaseELb0EE9Toom33MulEPjPKjS8_j,"x"
	.linkonce discard
	.section	.text$_ZN5CCore4Math11FastMulAlgoIN3App12Private_60054BaseELb0EE9Toom44MulEPjPKjS8_jNS5_10UnsafeWorkE,"x"
	.linkonce discard
	.p2align 4,,15
	.globl	__ZN5CCore4Math11FastMulAlgoIN3App12Private_60054BaseELb0EE9Toom44MulEPjPKjS8_jNS5_10UnsafeWorkE
	.def	__ZN5CCore4Math11FastMulAlgoIN3App12Private_60054BaseELb0EE9Toom44MulEPjPKjS8_jNS5_10UnsafeWorkE;	.scl	2;	.type	32;	.endef
__ZN5CCore4Math11FastMulAlgoIN3App12Private_60054BaseELb0EE9Toom44MulEPjPKjS8_jNS5_10UnsafeWorkE:
LFB5053:
	.cfi_startproc
	pushl	%ebp
	.cfi_def_cfa_offset 8
	.cfi_offset 5, -8
	pushl	%edi
	.cfi_def_cfa_offset 12
	.cfi_offset 7, -12
	pushl	%esi
	.cfi_def_cfa_offset 16
	.cfi_offset 6, -16
	pushl	%ebx
	.cfi_def_cfa_offset 20
	.cfi_offset 3, -20
	subl	$204, %esp
	.cfi_def_cfa_offset 224
	movl	224(%esp), %esi
	movl	232(%esp), %eax
	movl	228(%esp), %ecx
	movl	240(%esp), %ebx
	movl	%esi, 84(%esp)
	movl	236(%esp), %esi
	movl	%eax, 120(%esp)
	movl	%ebx, 72(%esp)
	leal	3(%esi), %eax
	movl	%eax, %edx
	shrl	$2, %edx
	leal	(%edx,%edx,2), %edi
	movl	%edx, 40(%esp)
	subl	%edi, %esi
	movl	%edi, 168(%esp)
	movl	%esi, 56(%esp)
	leal	1(%edx), %edi
	movl	%eax, %esi
	movl	%ecx, %eax
	movl	%edi, 52(%esp)
	leal	(%edi,%edi), %ebp
	andl	$-4, %esi
	addl	%esi, %ecx
	movl	%esi, 88(%esp)
	movl	%ecx, 124(%esp)
	movl	%ecx, %edx
	movl	120(%esp), %ecx
	addl	%esi, %edx
	movl	%ebp, 160(%esp)
	subl	$1, %ebp
	movl	%edx, %edi
	movl	%edx, 136(%esp)
	movl	168(%esp), %edx
	addl	%esi, %edi
	movl	%edi, 100(%esp)
	movl	%ecx, %edi
	addl	%esi, %edi
	movl	%edi, 128(%esp)
	addl	%esi, %edi
	movl	%edi, 140(%esp)
	addl	%esi, %edi
	movl	84(%esp), %esi
	movl	%edi, 104(%esp)
	movl	52(%esp), %edi
	leal	(%esi,%edx,8), %esi
	movl	%esi, 92(%esp)
	movl	%edi, %esi
	sall	$3, %esi
	addl	%esi, %ebx
	movl	%esi, 172(%esp)
	movl	%esi, %edx
	movl	%ebx, 60(%esp)
	addl	%esi, %ebx
	movl	%ebx, 68(%esp)
	addl	%esi, %ebx
	movl	%ebx, 164(%esp)
	addl	%esi, %ebx
	movl	%ebx, 80(%esp)
	addl	%esi, %ebx
	movl	%ebx, 44(%esp)
	addl	%ebx, %esi
	leal	0(,%ebp,4), %ebx
	movl	%esi, 48(%esp)
	movl	%ebx, 116(%esp)
	addl	%ebx, %esi
	leal	0(,%edi,4), %ebx
	movl	44(%esp), %edi
	movl	%eax, 148(%esp)
	movl	%ebx, 132(%esp)
	movl	%eax, 4(%esp)
	movl	84(%esp), %eax
	movl	%ecx, 8(%esp)
	addl	%ebx, %edi
	movl	116(%esp), %ebx
	movl	%edi, 76(%esp)
	leal	(%esi,%edx), %edi
	movl	%eax, (%esp)
	addl	%edi, %ebx
	movl	%ebx, %edx
	movl	%ebx, 144(%esp)
	movl	132(%esp), %ebx
	movl	%edx, 16(%esp)
	addl	%esi, %ebx
	movl	%ebx, 64(%esp)
	movl	%edx, %ebx
	movl	40(%esp), %edx
	movl	%edx, 12(%esp)
	call	__ZN5CCore4Math11FastMulAlgoIN3App12Private_60054BaseELb0EE4UMulEPjPKjS8_jNS5_10UnsafeWorkE
	movl	104(%esp), %ecx
	movl	%ebx, 16(%esp)
	movl	56(%esp), %eax
	movl	92(%esp), %ebx
	movl	%ecx, 8(%esp)
	movl	100(%esp), %ecx
	movl	%eax, 12(%esp)
	movl	%ebx, (%esp)
	movl	%ecx, 4(%esp)
	call	__ZN5CCore4Math11FastMulAlgoIN3App12Private_60054BaseELb0EE4UMulEPjPKjS8_jNS5_10UnsafeWorkE
	movl	88(%esp), %ecx
	movl	44(%esp), %eax
	movl	40(%esp), %edx
	leal	(%eax,%ecx), %ebx
	movl	148(%esp), %eax
	movl	%edx, 12(%esp)
	movl	136(%esp), %edx
	movl	%ebx, 112(%esp)
	movl	%eax, 4(%esp)
	movl	44(%esp), %eax
	movl	%edx, 8(%esp)
	movl	%eax, (%esp)
	call	__ZN5CCore4Math15IntegerFastAlgo4UAddEPjPKjS4_j
	movl	48(%esp), %ecx
	movl	88(%esp), %edx
	movl	%eax, (%ebx)
	movl	56(%esp), %ebx
	movl	100(%esp), %eax
	movl	%ecx, (%esp)
	addl	%ecx, %edx
	movl	%edx, 156(%esp)
	movl	124(%esp), %edx
	movl	%ebx, 12(%esp)
	movl	%eax, 8(%esp)
	movl	%edx, 4(%esp)
	call	__ZN5CCore4Math15IntegerFastAlgo4UAddEPjPKjS4_j
	movl	%ebx, %ecx
	sall	$2, %ebx
	movl	%ebx, 96(%esp)
	cmpl	%ecx, 40(%esp)
	jbe	L1411
	movl	%eax, 152(%esp)
	movl	48(%esp), %edx
	movl	96(%esp), %eax
	movl	124(%esp), %ecx
	movl	40(%esp), %ebx
	subl	56(%esp), %ebx
	addl	%eax, %edx
	addl	%eax, %ecx
	movl	%edx, (%esp)
	movl	%ecx, 4(%esp)
	movl	%ebx, 8(%esp)
	movl	%edx, 108(%esp)
	call	__ZN5CCore4Math15IntegerFastAlgo4CopyEPjPKjj
	movl	152(%esp), %eax
	movl	%ebx, 4(%esp)
	movl	108(%esp), %edx
	movl	%eax, 8(%esp)
	movl	%edx, (%esp)
	call	__ZN5CCore4Math15IntegerFastAlgo8UAddUnitEPjjj
L1411:
	movl	156(%esp), %edx
	movl	%esi, 108(%esp)
	movl	76(%esp), %ecx
	movl	44(%esp), %ebx
	movl	%eax, (%edx)
	movl	52(%esp), %eax
	movl	48(%esp), %edx
	.p2align 4,,10
L1415:
	movl	-4(%edx,%eax,4), %esi
	cmpl	%esi, -4(%ebx,%eax,4)
	jne	L1442
	movl	$0, -4(%ecx,%eax,4)
	subl	$1, %eax
	jne	L1415
	movl	108(%esp), %esi
	movl	%ebx, 44(%esp)
	movb	$0, 187(%esp)
L1414:
	movl	52(%esp), %eax
	movl	%eax, 8(%esp)
	movl	48(%esp), %eax
	movl	%eax, 4(%esp)
	movl	44(%esp), %eax
	movl	%eax, (%esp)
	call	__ZN5CCore4Math15IntegerFastAlgo4UAddEPjPKjj
	movl	140(%esp), %ecx
	movl	%esi, (%esp)
	movl	88(%esp), %eax
	movl	40(%esp), %edx
	movl	%ecx, 8(%esp)
	movl	120(%esp), %ecx
	leal	(%esi,%eax), %ebx
	movl	%edx, 12(%esp)
	movl	%ebx, 108(%esp)
	movl	%ecx, 4(%esp)
	call	__ZN5CCore4Math15IntegerFastAlgo4UAddEPjPKjS4_j
	movl	%eax, (%ebx)
	movl	88(%esp), %eax
	movl	56(%esp), %ebx
	movl	%edi, (%esp)
	addl	%edi, %eax
	movl	%eax, 152(%esp)
	movl	104(%esp), %eax
	movl	%ebx, 12(%esp)
	movl	%eax, 8(%esp)
	movl	128(%esp), %eax
	movl	%eax, 4(%esp)
	call	__ZN5CCore4Math15IntegerFastAlgo4UAddEPjPKjS4_j
	cmpl	%ebx, 40(%esp)
	jbe	L1416
	movl	%eax, 180(%esp)
	movl	128(%esp), %ecx
	movl	96(%esp), %eax
	movl	40(%esp), %ebx
	subl	56(%esp), %ebx
	leal	(%edi,%eax), %edx
	addl	%eax, %ecx
	movl	%edx, (%esp)
	movl	%ebx, 8(%esp)
	movl	%ecx, 4(%esp)
	movl	%edx, 176(%esp)
	call	__ZN5CCore4Math15IntegerFastAlgo4CopyEPjPKjj
	movl	180(%esp), %eax
	movl	%ebx, 4(%esp)
	movl	176(%esp), %edx
	movl	%eax, 8(%esp)
	movl	%edx, (%esp)
	call	__ZN5CCore4Math15IntegerFastAlgo8UAddUnitEPjjj
L1416:
	movl	152(%esp), %edx
	movl	44(%esp), %ebx
	movl	%eax, (%edx)
	movl	52(%esp), %eax
	movl	64(%esp), %edx
	.p2align 4,,10
L1420:
	movl	-4(%edi,%eax,4), %ecx
	cmpl	%ecx, -4(%esi,%eax,4)
	jne	L1443
	movl	$0, -4(%edx,%eax,4)
	subl	$1, %eax
	jne	L1420
	movl	%ebx, 44(%esp)
	movb	$0, 180(%esp)
L1419:
	movl	52(%esp), %ebx
	movl	%edi, 4(%esp)
	movl	%esi, (%esp)
	movl	%ebx, 8(%esp)
	call	__ZN5CCore4Math15IntegerFastAlgo4UAddEPjPKjj
	movl	64(%esp), %ecx
	movl	%ebx, 52(%esp)
	movl	144(%esp), %edx
	movl	%ebx, 12(%esp)
	movl	76(%esp), %ebx
	movl	%ecx, 8(%esp)
	movl	60(%esp), %ecx
	movl	%edx, 16(%esp)
	movl	%ebx, 4(%esp)
	movl	%ecx, (%esp)
	call	__ZN5CCore4Math11FastMulAlgoIN3App12Private_60054BaseELb0EE4UMulEPjPKjS8_jNS5_10UnsafeWorkE
	movl	144(%esp), %edx
	movl	%esi, 8(%esp)
	movl	52(%esp), %eax
	movl	44(%esp), %ecx
	movl	%edx, 16(%esp)
	movl	72(%esp), %edx
	movl	%eax, 12(%esp)
	movl	%ecx, 4(%esp)
	movl	%edx, (%esp)
	call	__ZN5CCore4Math11FastMulAlgoIN3App12Private_60054BaseELb0EE4UMulEPjPKjS8_jNS5_10UnsafeWorkE
	movl	136(%esp), %ecx
	movl	%ebx, (%esp)
	movl	40(%esp), %eax
	movl	$2, 12(%esp)
	movl	%ecx, 4(%esp)
	movl	%eax, 8(%esp)
	call	__ZN5CCore4Math15IntegerFastAlgo7ULShiftEPjPKjjj
	movl	148(%esp), %ecx
	movl	%ebx, 8(%esp)
	movl	40(%esp), %edx
	movl	%eax, 176(%esp)
	movl	%ecx, 4(%esp)
	movl	44(%esp), %ecx
	movl	%edx, 12(%esp)
	movl	%ecx, (%esp)
	call	__ZN5CCore4Math15IntegerFastAlgo4UAddEPjPKjS4_j
	movl	112(%esp), %ecx
	addl	176(%esp), %eax
	movl	40(%esp), %edx
	movl	%eax, (%ecx)
	movl	124(%esp), %ecx
	movl	%edx, 8(%esp)
	movl	$1, 12(%esp)
	movl	%ecx, 4(%esp)
	movl	48(%esp), %ecx
	movl	%ecx, (%esp)
	call	__ZN5CCore4Math15IntegerFastAlgo7ULShiftEPjPKjjj
	movl	156(%esp), %ebx
	movl	48(%esp), %edx
	addl	132(%esp), %edx
	movl	%eax, (%ebx)
	movl	40(%esp), %eax
	movl	56(%esp), %ebx
	cmpl	%ebx, %eax
	ja	L1444
	movl	%eax, %ebx
	movl	%eax, 8(%esp)
	movl	100(%esp), %eax
	movl	%edx, (%esp)
	movl	$3, 12(%esp)
	movl	%edx, 188(%esp)
	movl	%eax, 4(%esp)
	call	__ZN5CCore4Math15IntegerFastAlgo7ULShiftEPjPKjjj
	movl	188(%esp), %edx
	movl	%ebx, 8(%esp)
	movl	%eax, 176(%esp)
	movl	%edx, 4(%esp)
	movl	48(%esp), %edx
	movl	%edx, (%esp)
	call	__ZN5CCore4Math15IntegerFastAlgo4UAddEPjPKjj
	movl	156(%esp), %edx
	addl	176(%esp), %eax
	addl	%eax, (%edx)
L1422:
	movl	52(%esp), %eax
	movl	%esi, 156(%esp)
	movl	76(%esp), %ecx
	movl	48(%esp), %edx
	movl	44(%esp), %ebx
	.p2align 4,,10
L1426:
	movl	-4(%edx,%eax,4), %esi
	cmpl	%esi, -4(%ebx,%eax,4)
	jne	L1445
	movl	$0, -4(%ecx,%eax,4)
	subl	$1, %eax
	jne	L1426
	movl	156(%esp), %esi
	movl	%ebx, 44(%esp)
	movb	$0, 176(%esp)
L1425:
	movl	52(%esp), %eax
	movl	48(%esp), %edx
	movl	%eax, 8(%esp)
	movl	44(%esp), %eax
	movl	%edx, 4(%esp)
	movl	%eax, (%esp)
	call	__ZN5CCore4Math15IntegerFastAlgo4UAddEPjPKjj
	movl	64(%esp), %ebx
	movl	$2, 12(%esp)
	movl	140(%esp), %edx
	movl	40(%esp), %eax
	movl	%ebx, (%esp)
	movl	%edx, 4(%esp)
	movl	%eax, 8(%esp)
	call	__ZN5CCore4Math15IntegerFastAlgo7ULShiftEPjPKjjj
	movl	40(%esp), %ecx
	movl	%ebx, 8(%esp)
	movl	120(%esp), %edx
	movl	%esi, (%esp)
	movl	%eax, 156(%esp)
	movl	%ecx, 12(%esp)
	movl	%edx, 4(%esp)
	call	__ZN5CCore4Math15IntegerFastAlgo4UAddEPjPKjS4_j
	movl	108(%esp), %edx
	addl	156(%esp), %eax
	movl	40(%esp), %ebx
	movl	%eax, (%edx)
	movl	128(%esp), %edx
	movl	%ebx, 8(%esp)
	movl	$1, 12(%esp)
	movl	%edi, (%esp)
	movl	%edx, 4(%esp)
	call	__ZN5CCore4Math15IntegerFastAlgo7ULShiftEPjPKjjj
	movl	152(%esp), %edx
	movl	%ebx, %ecx
	movl	56(%esp), %ebx
	movl	%eax, (%edx)
	movl	132(%esp), %edx
	addl	%edi, %edx
	cmpl	%ebx, %ecx
	ja	L1446
	movl	40(%esp), %ebx
	movl	%edx, (%esp)
	movl	104(%esp), %eax
	movl	$3, 12(%esp)
	movl	%edx, 156(%esp)
	movl	%ebx, 8(%esp)
	movl	%eax, 4(%esp)
	call	__ZN5CCore4Math15IntegerFastAlgo7ULShiftEPjPKjjj
	movl	156(%esp), %edx
	movl	%ebx, 8(%esp)
	movl	%edi, (%esp)
	movl	%eax, 132(%esp)
	movl	%edx, 4(%esp)
	call	__ZN5CCore4Math15IntegerFastAlgo4UAddEPjPKjj
	movl	152(%esp), %edx
	addl	132(%esp), %eax
	addl	%eax, (%edx)
L1428:
	movl	52(%esp), %eax
	movl	64(%esp), %edx
	movl	44(%esp), %ebx
	.p2align 4,,10
L1432:
	movl	-4(%edi,%eax,4), %ecx
	cmpl	%ecx, -4(%esi,%eax,4)
	jne	L1447
	movl	$0, -4(%edx,%eax,4)
	subl	$1, %eax
	jne	L1432
	movl	%ebx, 44(%esp)
	movb	$0, 132(%esp)
L1431:
	movl	52(%esp), %eax
	movl	%edi, 4(%esp)
	movl	%esi, (%esp)
	movl	%eax, 8(%esp)
	call	__ZN5CCore4Math15IntegerFastAlgo4UAddEPjPKjj
	movl	64(%esp), %eax
	movl	144(%esp), %ebx
	movl	52(%esp), %edi
	movl	76(%esp), %edx
	movl	%eax, 8(%esp)
	movl	164(%esp), %eax
	movl	%ebx, 16(%esp)
	movl	%edi, 12(%esp)
	movl	%edx, 4(%esp)
	movl	%eax, (%esp)
	call	__ZN5CCore4Math11FastMulAlgoIN3App12Private_60054BaseELb0EE4UMulEPjPKjS8_jNS5_10UnsafeWorkE
	movl	44(%esp), %eax
	movl	%ebx, 16(%esp)
	movl	%edi, 12(%esp)
	movl	%esi, 8(%esp)
	movl	%edi, 52(%esp)
	movl	%eax, 4(%esp)
	movl	68(%esp), %eax
	movl	%eax, (%esp)
	call	__ZN5CCore4Math11FastMulAlgoIN3App12Private_60054BaseELb0EE4UMulEPjPKjS8_jNS5_10UnsafeWorkE
	movl	136(%esp), %eax
	movl	$1, 12(%esp)
	movl	40(%esp), %edi
	movl	%eax, 4(%esp)
	movl	44(%esp), %eax
	movl	%edi, 8(%esp)
	movl	%eax, (%esp)
	call	__ZN5CCore4Math15IntegerFastAlgo7ULShiftEPjPKjjj
	movl	112(%esp), %ecx
	movl	100(%esp), %edx
	movl	%eax, (%ecx)
	movl	56(%esp), %eax
	movl	%edx, 4(%esp)
	movl	%eax, 8(%esp)
	movl	44(%esp), %eax
	movl	%eax, (%esp)
	call	__ZN5CCore4Math15IntegerFastAlgo4UAddEPjPKjj
	movl	52(%esp), %edx
	movl	%eax, 8(%esp)
	subl	56(%esp), %edx
	movl	96(%esp), %eax
	addl	44(%esp), %eax
	movl	%edx, 4(%esp)
	movl	%edx, 100(%esp)
	movl	%eax, (%esp)
	call	__ZN5CCore4Math15IntegerFastAlgo8UAddUnitEPjjj
	movl	124(%esp), %edx
	movl	%edi, 8(%esp)
	movl	76(%esp), %ecx
	movl	$2, 12(%esp)
	movl	%edi, 40(%esp)
	movl	%edx, 4(%esp)
	movl	%ecx, (%esp)
	call	__ZN5CCore4Math15IntegerFastAlgo7ULShiftEPjPKjjj
	movl	76(%esp), %ecx
	movl	%eax, %edi
	movl	40(%esp), %eax
	movl	%ecx, 4(%esp)
	movl	%eax, 8(%esp)
	movl	44(%esp), %eax
	movl	%eax, (%esp)
	call	__ZN5CCore4Math15IntegerFastAlgo4UAddEPjPKjj
	movl	148(%esp), %edx
	addl	%eax, %edi
	movl	112(%esp), %eax
	movl	76(%esp), %ecx
	addl	%edi, (%eax)
	movl	%edx, 4(%esp)
	movl	40(%esp), %edi
	movl	%ecx, (%esp)
	movl	$3, 12(%esp)
	movl	%edi, 8(%esp)
	call	__ZN5CCore4Math15IntegerFastAlgo7ULShiftEPjPKjjj
	movl	76(%esp), %ecx
	movl	%eax, %edi
	movl	40(%esp), %eax
	movl	%ecx, 4(%esp)
	movl	%eax, 8(%esp)
	movl	44(%esp), %eax
	movl	%eax, (%esp)
	call	__ZN5CCore4Math15IntegerFastAlgo4UAddEPjPKjj
	movl	112(%esp), %ecx
	addl	%eax, %edi
	movl	140(%esp), %edx
	addl	%edi, (%ecx)
	movl	%esi, (%esp)
	movl	40(%esp), %edi
	movl	%edx, 4(%esp)
	movl	$1, 12(%esp)
	movl	%edi, 8(%esp)
	call	__ZN5CCore4Math15IntegerFastAlgo7ULShiftEPjPKjjj
	movl	108(%esp), %edx
	movl	56(%esp), %ecx
	movl	%eax, (%edx)
	movl	%ecx, 8(%esp)
	movl	104(%esp), %ecx
	movl	%esi, (%esp)
	movl	%ecx, 4(%esp)
	call	__ZN5CCore4Math15IntegerFastAlgo4UAddEPjPKjj
	movl	100(%esp), %edx
	movl	%eax, 8(%esp)
	movl	96(%esp), %eax
	movl	%edx, 4(%esp)
	addl	%esi, %eax
	movl	%eax, (%esp)
	call	__ZN5CCore4Math15IntegerFastAlgo8UAddUnitEPjjj
	movl	128(%esp), %ecx
	movl	%edi, 8(%esp)
	movl	$2, 12(%esp)
	movl	%edi, 40(%esp)
	movl	%ecx, 4(%esp)
	movl	64(%esp), %ecx
	movl	%ecx, (%esp)
	call	__ZN5CCore4Math15IntegerFastAlgo7ULShiftEPjPKjjj
	movl	64(%esp), %ecx
	movl	%esi, (%esp)
	movl	%eax, %edi
	movl	40(%esp), %eax
	movl	%ecx, 4(%esp)
	movl	%eax, 8(%esp)
	call	__ZN5CCore4Math15IntegerFastAlgo4UAddEPjPKjj
	movl	108(%esp), %edx
	addl	%eax, %edi
	movl	64(%esp), %ecx
	movl	40(%esp), %eax
	addl	%edi, (%edx)
	movl	$3, 12(%esp)
	movl	120(%esp), %edi
	movl	%ecx, (%esp)
	movl	%eax, 8(%esp)
	movl	%edi, 4(%esp)
	call	__ZN5CCore4Math15IntegerFastAlgo7ULShiftEPjPKjjj
	movl	64(%esp), %ecx
	movl	%esi, (%esp)
	movl	%eax, %edi
	movl	40(%esp), %eax
	movl	%ecx, 4(%esp)
	movl	%eax, 8(%esp)
	call	__ZN5CCore4Math15IntegerFastAlgo4UAddEPjPKjj
	movl	108(%esp), %ecx
	movl	52(%esp), %edx
	addl	%eax, %edi
	movl	44(%esp), %eax
	addl	%edi, (%ecx)
	movl	%ebx, 16(%esp)
	movl	%edx, 12(%esp)
	movl	80(%esp), %edx
	movl	%esi, 8(%esp)
	movl	%eax, 4(%esp)
	movl	%edx, (%esp)
	call	__ZN5CCore4Math11FastMulAlgoIN3App12Private_60054BaseELb0EE4UMulEPjPKjS8_jNS5_10UnsafeWorkE
	movl	172(%esp), %ecx
	movl	%ebp, 12(%esp)
	movl	40(%esp), %eax
	movl	92(%esp), %edi
	movl	60(%esp), %esi
	subl	$8, %ecx
	movl	72(%esp), %ebx
	sall	$4, %eax
	movl	%ecx, 52(%esp)
	movzbl	187(%esp), %ecx
	subl	%eax, %edi
	cmpb	%cl, 180(%esp)
	movl	%esi, 8(%esp)
	movl	%ebx, 4(%esp)
	movl	%edi, (%esp)
	je	L1448
	call	__ZN5CCore4Math15IntegerFastAlgo4USubEPjPKjS4_j
	movl	$1, 8(%esp)
	movl	%ebp, 4(%esp)
	movl	%edi, (%esp)
	call	__ZN5CCore4Math15IntegerFastAlgo7URShiftEPjjj
	movl	%ebp, 8(%esp)
	movl	%esi, 4(%esp)
	movl	%ebx, (%esp)
	call	__ZN5CCore4Math15IntegerFastAlgo4UAddEPjPKjj
L1434:
	movl	72(%esp), %eax
	movl	$1, 8(%esp)
	movl	%ebp, 4(%esp)
	movl	%eax, (%esp)
	call	__ZN5CCore4Math15IntegerFastAlgo7URShiftEPjjj
	movl	164(%esp), %esi
	movl	%ebp, 12(%esp)
	movzbl	176(%esp), %ecx
	movl	68(%esp), %ebx
	movl	48(%esp), %eax
	cmpb	%cl, 132(%esp)
	movl	%esi, 8(%esp)
	movl	%ebx, 4(%esp)
	movl	%eax, (%esp)
	je	L1449
	call	__ZN5CCore4Math15IntegerFastAlgo4USubEPjPKjS4_j
	movl	48(%esp), %eax
	movl	%ebp, 4(%esp)
	movl	$1, 8(%esp)
	movl	%eax, (%esp)
	call	__ZN5CCore4Math15IntegerFastAlgo7URShiftEPjjj
	movl	%ebp, 8(%esp)
	movl	%esi, 4(%esp)
	movl	%ebx, (%esp)
	call	__ZN5CCore4Math15IntegerFastAlgo4UAddEPjPKjj
L1436:
	movl	68(%esp), %eax
	movl	%ebp, 4(%esp)
	movl	$2, 8(%esp)
	movl	%eax, (%esp)
	call	__ZN5CCore4Math15IntegerFastAlgo7URShiftEPjjj
	movl	160(%esp), %edx
	movl	%edi, (%esp)
	leal	-2(%edx), %esi
	movl	84(%esp), %edx
	movl	%esi, 8(%esp)
	movl	%edx, 4(%esp)
	call	__ZN5CCore4Math15IntegerFastAlgo4USubEPjPKjj
	movl	52(%esp), %ebx
	movl	%ebp, %ecx
	subl	%esi, %ecx
	movl	%eax, 8(%esp)
	movl	%ecx, 4(%esp)
	movl	%ecx, 64(%esp)
	leal	(%edi,%ebx), %eax
	movl	%eax, (%esp)
	call	__ZN5CCore4Math15IntegerFastAlgo8USubUnitEPjjj
	movl	56(%esp), %ecx
	movl	%edi, (%esp)
	leal	(%ecx,%ecx), %ebx
	movl	92(%esp), %ecx
	movl	%ebx, 8(%esp)
	movl	%ecx, 4(%esp)
	call	__ZN5CCore4Math15IntegerFastAlgo4USubEPjPKjj
	movl	56(%esp), %edx
	movl	%ebp, %ecx
	movl	%ebx, 44(%esp)
	subl	%ebx, %ecx
	movl	%eax, 8(%esp)
	movl	%ecx, 4(%esp)
	movl	%ecx, 76(%esp)
	leal	0(,%edx,8), %ebx
	leal	(%edi,%ebx), %eax
	movl	%eax, (%esp)
	call	__ZN5CCore4Math15IntegerFastAlgo8USubUnitEPjjj
	movl	84(%esp), %edx
	movl	%esi, 8(%esp)
	movl	48(%esp), %eax
	movl	%edx, 4(%esp)
	movl	%eax, (%esp)
	call	__ZN5CCore4Math15IntegerFastAlgo4USubEPjPKjj
	movl	64(%esp), %edx
	movl	%eax, 8(%esp)
	movl	48(%esp), %eax
	addl	52(%esp), %eax
	movl	%edx, 4(%esp)
	movl	%eax, (%esp)
	call	__ZN5CCore4Math15IntegerFastAlgo8USubUnitEPjjj
	movl	44(%esp), %ecx
	movl	$6, 12(%esp)
	movl	60(%esp), %eax
	movl	%ecx, 8(%esp)
	movl	92(%esp), %ecx
	leal	(%eax,%ebx), %edx
	movl	%eax, (%esp)
	movl	%edx, 64(%esp)
	movl	%ecx, 4(%esp)
	call	__ZN5CCore4Math15IntegerFastAlgo7ULShiftEPjPKjjj
	movl	64(%esp), %edx
	movl	44(%esp), %ecx
	movl	%eax, (%edx)
	movl	60(%esp), %eax
	leal	1(%ecx), %edx
	movl	%edx, 8(%esp)
	movl	%edx, 64(%esp)
	movl	48(%esp), %edx
	movl	%eax, 4(%esp)
	movl	%edx, (%esp)
	call	__ZN5CCore4Math15IntegerFastAlgo4USubEPjPKjj
	movl	64(%esp), %edx
	movl	%ebp, %ecx
	movl	%eax, 8(%esp)
	subl	%edx, %ecx
	movl	%ecx, 4(%esp)
	movl	48(%esp), %ecx
	leal	(%ecx,%edx,4), %eax
	movl	%eax, (%esp)
	call	__ZN5CCore4Math15IntegerFastAlgo8USubUnitEPjjj
	movl	48(%esp), %ecx
	movl	%ebp, 4(%esp)
	movl	$2, 8(%esp)
	movl	%ecx, (%esp)
	call	__ZN5CCore4Math15IntegerFastAlgo7URShiftEPjjj
	movl	48(%esp), %ecx
	movl	%ebp, 8(%esp)
	movl	%edi, 4(%esp)
	movl	%ecx, (%esp)
	call	__ZN5CCore4Math15IntegerFastAlgo4USubEPjPKjj
	movl	48(%esp), %ecx
	movl	%ebp, 4(%esp)
	movl	%ecx, (%esp)
	call	__ZN5CCore4Math15IntegerFastAlgo5UDiv3EPjj
	movl	48(%esp), %ecx
	movl	%ebp, 8(%esp)
	movl	%edi, (%esp)
	movl	%ecx, 4(%esp)
	call	__ZN5CCore4Math15IntegerFastAlgo4USubEPjPKjj
	movl	92(%esp), %eax
	movl	44(%esp), %edx
	movl	%eax, 4(%esp)
	movl	80(%esp), %eax
	movl	%edx, 8(%esp)
	movl	%eax, (%esp)
	call	__ZN5CCore4Math15IntegerFastAlgo4USubEPjPKjj
	addl	80(%esp), %ebx
	movl	76(%esp), %ecx
	movl	%eax, 8(%esp)
	movl	%ebx, (%esp)
	movl	%ecx, 4(%esp)
	call	__ZN5CCore4Math15IntegerFastAlgo8USubUnitEPjjj
	movl	60(%esp), %ebx
	movl	%ebp, 8(%esp)
	movl	48(%esp), %ecx
	movl	$2, 12(%esp)
	movl	%ebx, (%esp)
	movl	%ecx, 4(%esp)
	call	__ZN5CCore4Math15IntegerFastAlgo7ULShiftEPjPKjjj
	movl	%ebx, 60(%esp)
	movl	%ebx, 4(%esp)
	movl	80(%esp), %ebx
	movl	%ebp, 8(%esp)
	movl	%ebx, (%esp)
	call	__ZN5CCore4Math15IntegerFastAlgo4USubEPjPKjj
	movl	60(%esp), %ecx
	movl	%ebp, 8(%esp)
	movl	%edi, 4(%esp)
	movl	$4, 12(%esp)
	movl	%ecx, (%esp)
	call	__ZN5CCore4Math15IntegerFastAlgo7ULShiftEPjPKjjj
	movl	60(%esp), %eax
	movl	%ebp, 8(%esp)
	movl	%ebx, (%esp)
	movl	%ebx, 80(%esp)
	movl	%eax, 4(%esp)
	call	__ZN5CCore4Math15IntegerFastAlgo4USubEPjPKjj
	movl	60(%esp), %eax
	movl	%esi, 8(%esp)
	movl	84(%esp), %esi
	movl	$6, 12(%esp)
	movl	52(%esp), %ebx
	movl	%eax, (%esp)
	movl	%esi, 4(%esp)
	movl	%eax, %esi
	addl	%eax, %ebx
	call	__ZN5CCore4Math15IntegerFastAlgo7ULShiftEPjPKjjj
	movl	%eax, (%ebx)
	movl	80(%esp), %ebx
	movl	%ebp, 8(%esp)
	movl	%esi, 4(%esp)
	movl	%ebx, (%esp)
	call	__ZN5CCore4Math15IntegerFastAlgo4USubEPjPKjj
	movl	%ebp, 4(%esp)
	movl	%ebx, (%esp)
	movl	$1, 8(%esp)
	call	__ZN5CCore4Math15IntegerFastAlgo7URShiftEPjjj
	movl	72(%esp), %eax
	movl	%ebp, 8(%esp)
	movl	%eax, 4(%esp)
	movl	68(%esp), %eax
	movl	%eax, (%esp)
	call	__ZN5CCore4Math15IntegerFastAlgo4USubEPjPKjj
	movl	68(%esp), %eax
	movl	%ebp, 4(%esp)
	movl	%eax, (%esp)
	call	__ZN5CCore4Math15IntegerFastAlgo5UDiv3EPjj
	movl	72(%esp), %eax
	movl	%ebp, 8(%esp)
	movl	%ebx, (%esp)
	movl	%eax, 4(%esp)
	call	__ZN5CCore4Math15IntegerFastAlgo4USubEPjPKjj
	movl	%ebp, 4(%esp)
	movl	%ebx, (%esp)
	call	__ZN5CCore4Math15IntegerFastAlgo5UDiv3EPjj
	movl	68(%esp), %eax
	movl	%ebp, 8(%esp)
	movl	%ebx, (%esp)
	movl	%eax, 4(%esp)
	call	__ZN5CCore4Math15IntegerFastAlgo4UAddEPjPKjj
	movl	72(%esp), %eax
	movl	%esi, (%esp)
	movl	%ebp, 8(%esp)
	movl	$1, 12(%esp)
	movl	%eax, 4(%esp)
	call	__ZN5CCore4Math15IntegerFastAlgo7ULShiftEPjPKjjj
	movl	%ebp, 8(%esp)
	movl	%esi, 4(%esp)
	movl	%ebx, (%esp)
	call	__ZN5CCore4Math15IntegerFastAlgo4USubEPjPKjj
	movl	%ebp, 4(%esp)
	movl	%ebx, (%esp)
	call	__ZN5CCore4Math15IntegerFastAlgo5UDiv3EPjj
	movl	72(%esp), %esi
	movl	%ebp, 8(%esp)
	movl	%ebx, 4(%esp)
	movl	%esi, (%esp)
	call	__ZN5CCore4Math15IntegerFastAlgo4USubEPjPKjj
	movl	%esi, 72(%esp)
	movl	%esi, 4(%esp)
	movl	68(%esp), %esi
	movl	%ebp, 8(%esp)
	movl	%esi, (%esp)
	call	__ZN5CCore4Math15IntegerFastAlgo4USubEPjPKjj
	movl	%ebp, 4(%esp)
	movl	%esi, (%esp)
	call	__ZN5CCore4Math15IntegerFastAlgo5UDiv5EPjj
	movl	%ebp, 8(%esp)
	movl	%esi, 4(%esp)
	movl	%ebx, (%esp)
	movl	%esi, 68(%esp)
	movl	%ebx, 80(%esp)
	call	__ZN5CCore4Math15IntegerFastAlgo4USubEPjPKjj
	movl	160(%esp), %ebx
	movl	84(%esp), %esi
	leal	-3(%ebx), %eax
	movl	40(%esp), %ebx
	movl	%eax, 4(%esp)
	movl	%ebx, %edx
	sall	$4, %edx
	leal	4(%esi,%edx), %eax
	movl	%eax, (%esp)
	call	__ZN5CCore4Math15IntegerFastAlgo4NullEPjj
	addl	88(%esp), %esi
	movl	%ebx, %edx
	movl	%ebp, 8(%esp)
	movl	80(%esp), %eax
	movl	%edx, 40(%esp)
	leal	0(,%ebx,4), %ebx
	movl	%ebx, 52(%esp)
	addl	%edx, %ebx
	addl	44(%esp), %ebx
	movl	%esi, (%esp)
	movl	%eax, 4(%esp)
	call	__ZN5CCore4Math15IntegerFastAlgo4UAddEPjPKjj
	addl	116(%esp), %esi
	subl	%ebp, %ebx
	movl	%eax, 8(%esp)
	movl	%ebx, 4(%esp)
	movl	%esi, (%esp)
	call	__ZN5CCore4Math15IntegerFastAlgo8UAddUnitEPjjj
	movl	52(%esp), %ebx
	movl	%ebp, 8(%esp)
	movl	168(%esp), %esi
	addl	44(%esp), %esi
	addl	%edi, %ebx
	movl	72(%esp), %edi
	movl	%ebx, (%esp)
	subl	%ebp, %esi
	movl	%edi, 4(%esp)
	call	__ZN5CCore4Math15IntegerFastAlgo4UAddEPjPKjj
	movl	116(%esp), %edi
	movl	%esi, 4(%esp)
	movl	%eax, 8(%esp)
	leal	(%ebx,%edi), %eax
	movl	%eax, (%esp)
	call	__ZN5CCore4Math15IntegerFastAlgo8UAddUnitEPjjj
	movl	52(%esp), %edi
	movl	%ebp, 8(%esp)
	movl	48(%esp), %ecx
	movl	40(%esp), %edx
	addl	56(%esp), %edx
	addl	%edi, %ebx
	movl	%ecx, 4(%esp)
	movl	%ebx, (%esp)
	movl	%edx, %esi
	call	__ZN5CCore4Math15IntegerFastAlgo4UAddEPjPKjj
	movl	116(%esp), %ecx
	movl	%eax, 8(%esp)
	leal	(%esi,%esi), %eax
	subl	%ebp, %eax
	movl	%eax, 4(%esp)
	leal	(%ebx,%ecx), %eax
	movl	%eax, (%esp)
	call	__ZN5CCore4Math15IntegerFastAlgo8UAddUnitEPjjj
	addl	56(%esp), %esi
	movl	68(%esp), %eax
	cmpl	%esi, %ebp
	cmova	%esi, %ebp
	addl	%edi, %ebx
	movl	%eax, 4(%esp)
	movl	%ebx, (%esp)
	movl	%ebp, 8(%esp)
	subl	%ebp, %esi
	call	__ZN5CCore4Math15IntegerFastAlgo4UAddEPjPKjj
	movl	%esi, 228(%esp)
	movl	%eax, 232(%esp)
	leal	(%ebx,%ebp,4), %eax
	movl	%eax, 224(%esp)
	addl	$204, %esp
	.cfi_remember_state
	.cfi_def_cfa_offset 20
	popl	%ebx
	.cfi_restore 3
	.cfi_def_cfa_offset 16
	popl	%esi
	.cfi_restore 6
	.cfi_def_cfa_offset 12
	popl	%edi
	.cfi_restore 7
	.cfi_def_cfa_offset 8
	popl	%ebp
	.cfi_restore 5
	.cfi_def_cfa_offset 4
	jmp	__ZN5CCore4Math15IntegerFastAlgo8UAddUnitEPjjj
	.p2align 4,,10
L1442:
	.cfi_restore_state
	movl	108(%esp), %esi
	movl	%ebx, 44(%esp)
	movl	%eax, 12(%esp)
	jnb	L1413
	movl	48(%esp), %eax
	movl	%ebx, 8(%esp)
	movl	%eax, 4(%esp)
	movl	76(%esp), %eax
	movl	%eax, (%esp)
	call	__ZN5CCore4Math15IntegerFastAlgo4USubEPjPKjS4_j
	movb	$1, 187(%esp)
	jmp	L1414
	.p2align 4,,10
L1447:
	movl	%ebx, 44(%esp)
	movl	%eax, 12(%esp)
	jnb	L1430
	movl	64(%esp), %eax
	movl	%esi, 8(%esp)
	movl	%edi, 4(%esp)
	movl	%eax, (%esp)
	call	__ZN5CCore4Math15IntegerFastAlgo4USubEPjPKjS4_j
	movb	$1, 132(%esp)
	jmp	L1431
	.p2align 4,,10
L1445:
	movl	156(%esp), %esi
	movl	%ebx, 44(%esp)
	movl	%eax, 12(%esp)
	jnb	L1424
	movl	48(%esp), %eax
	movl	%ebx, 8(%esp)
	movl	%eax, 4(%esp)
	movl	76(%esp), %eax
	movl	%eax, (%esp)
	call	__ZN5CCore4Math15IntegerFastAlgo4USubEPjPKjS4_j
	movb	$1, 176(%esp)
	jmp	L1425
	.p2align 4,,10
L1443:
	movl	%ebx, 44(%esp)
	movl	%eax, 12(%esp)
	jnb	L1418
	movl	64(%esp), %eax
	movl	%esi, 8(%esp)
	movl	%edi, 4(%esp)
	movl	%eax, (%esp)
	call	__ZN5CCore4Math15IntegerFastAlgo4USubEPjPKjS4_j
	movb	$1, 180(%esp)
	jmp	L1419
	.p2align 4,,10
L1446:
	movl	96(%esp), %ecx
	movl	%edx, (%esp)
	movl	$3, 12(%esp)
	movl	%ebx, 8(%esp)
	movl	%edx, 152(%esp)
	addl	%edx, %ecx
	movl	%ecx, 132(%esp)
	movl	104(%esp), %ecx
	movl	%ecx, 4(%esp)
	call	__ZN5CCore4Math15IntegerFastAlgo7ULShiftEPjPKjjj
	movl	132(%esp), %ecx
	movl	152(%esp), %edx
	movl	%eax, (%ecx)
	leal	1(%ebx), %ecx
	movl	%ecx, 8(%esp)
	movl	%edx, 4(%esp)
	movl	%edi, (%esp)
	movl	%ecx, 132(%esp)
	call	__ZN5CCore4Math15IntegerFastAlgo4UAddEPjPKjj
	movl	132(%esp), %ecx
	movl	%eax, 8(%esp)
	movl	52(%esp), %eax
	subl	%ecx, %eax
	movl	96(%esp), %ecx
	movl	%eax, 4(%esp)
	leal	4(%edi,%ecx), %eax
	movl	%eax, (%esp)
	call	__ZN5CCore4Math15IntegerFastAlgo8UAddUnitEPjjj
	jmp	L1428
	.p2align 4,,10
L1444:
	movl	96(%esp), %ecx
	movl	%ebx, 8(%esp)
	movl	%edx, (%esp)
	movl	$3, 12(%esp)
	movl	%edx, 176(%esp)
	addl	%edx, %ecx
	movl	%ecx, 156(%esp)
	movl	100(%esp), %ecx
	movl	%ecx, 4(%esp)
	call	__ZN5CCore4Math15IntegerFastAlgo7ULShiftEPjPKjjj
	movl	156(%esp), %ecx
	movl	176(%esp), %edx
	movl	%eax, (%ecx)
	leal	1(%ebx), %ecx
	movl	48(%esp), %ebx
	movl	%ecx, 8(%esp)
	movl	%edx, 4(%esp)
	movl	%ecx, 156(%esp)
	movl	%ebx, (%esp)
	call	__ZN5CCore4Math15IntegerFastAlgo4UAddEPjPKjj
	movl	156(%esp), %ecx
	movl	%eax, 8(%esp)
	movl	52(%esp), %eax
	subl	%ecx, %eax
	movl	96(%esp), %ecx
	movl	%eax, 4(%esp)
	leal	4(%ebx,%ecx), %eax
	movl	%eax, (%esp)
	call	__ZN5CCore4Math15IntegerFastAlgo8UAddUnitEPjjj
	jmp	L1422
	.p2align 4,,10
L1448:
	call	__ZN5CCore4Math15IntegerFastAlgo4UAddEPjPKjS4_j
	movl	$1, 8(%esp)
	movl	%ebp, 4(%esp)
	movl	%edi, (%esp)
	call	__ZN5CCore4Math15IntegerFastAlgo7URShiftEPjjj
	movl	%ebp, 8(%esp)
	movl	%esi, 4(%esp)
	movl	%ebx, (%esp)
	call	__ZN5CCore4Math15IntegerFastAlgo4USubEPjPKjj
	jmp	L1434
	.p2align 4,,10
L1449:
	call	__ZN5CCore4Math15IntegerFastAlgo4UAddEPjPKjS4_j
	movl	48(%esp), %eax
	movl	%ebp, 4(%esp)
	movl	$1, 8(%esp)
	movl	%eax, (%esp)
	call	__ZN5CCore4Math15IntegerFastAlgo7URShiftEPjjj
	movl	%ebp, 8(%esp)
	movl	%esi, 4(%esp)
	movl	%ebx, (%esp)
	call	__ZN5CCore4Math15IntegerFastAlgo4USubEPjPKjj
	jmp	L1436
	.p2align 4,,10
L1413:
	movl	48(%esp), %eax
	movl	%eax, 8(%esp)
	movl	44(%esp), %eax
	movl	%eax, 4(%esp)
	movl	76(%esp), %eax
	movl	%eax, (%esp)
	call	__ZN5CCore4Math15IntegerFastAlgo4USubEPjPKjS4_j
	movb	$0, 187(%esp)
	jmp	L1414
	.p2align 4,,10
L1424:
	movl	48(%esp), %eax
	movl	%eax, 8(%esp)
	movl	44(%esp), %eax
	movl	%eax, 4(%esp)
	movl	76(%esp), %eax
	movl	%eax, (%esp)
	call	__ZN5CCore4Math15IntegerFastAlgo4USubEPjPKjS4_j
	movb	$0, 176(%esp)
	jmp	L1425
	.p2align 4,,10
L1430:
	movl	64(%esp), %eax
	movl	%edi, 8(%esp)
	movl	%esi, 4(%esp)
	movl	%eax, (%esp)
	call	__ZN5CCore4Math15IntegerFastAlgo4USubEPjPKjS4_j
	movb	$0, 132(%esp)
	jmp	L1431
	.p2align 4,,10
L1418:
	movl	64(%esp), %eax
	movl	%edi, 8(%esp)
	movl	%esi, 4(%esp)
	movl	%eax, (%esp)
	call	__ZN5CCore4Math15IntegerFastAlgo4USubEPjPKjS4_j
	movb	$0, 180(%esp)
	jmp	L1419
	.cfi_endproc
LFE5053:
	.section	.text$_ZN5CCore4Math11FastMulAlgoIN3App12Private_60054BaseELb0EE9Toom44MulEPjPKjS8_j,"x"
	.linkonce discard
	.p2align 4,,15
	.globl	__ZN5CCore4Math11FastMulAlgoIN3App12Private_60054BaseELb0EE9Toom44MulEPjPKjS8_j
	.def	__ZN5CCore4Math11FastMulAlgoIN3App12Private_60054BaseELb0EE9Toom44MulEPjPKjS8_j;	.scl	2;	.type	32;	.endef
__ZN5CCore4Math11FastMulAlgoIN3App12Private_60054BaseELb0EE9Toom44MulEPjPKjS8_j:
LFB5030:
	.cfi_startproc
	.cfi_personality 0,___gxx_personality_v0
	.cfi_lsda 0,LLSDA5030
	pushl	%esi
	.cfi_def_cfa_offset 8
	.cfi_offset 6, -8
	pushl	%ebx
	.cfi_def_cfa_offset 12
	.cfi_offset 3, -12
	subl	$1076, %esp
	.cfi_def_cfa_offset 1088
	movl	1100(%esp), %esi
	leal	40(%esp), %ebx
	movl	%esi, (%esp)
LEHB11:
	call	__ZN5CCore4Math11FastMulAlgoIN3App12Private_60054BaseELb0EE16Toom44MulTempLenEj
	movl	%ebx, (%esp)
	movl	%eax, 4(%esp)
	call	__ZN5CCore4Math11FastMulAlgoIN3App12Private_60054BaseELb0EE4TempC1Ej
LEHE11:
	movl	1064(%esp), %eax
	movl	%esi, 12(%esp)
	movl	%eax, 16(%esp)
	movl	1096(%esp), %eax
	movl	%eax, 8(%esp)
	movl	1092(%esp), %eax
	movl	%eax, 4(%esp)
	movl	1088(%esp), %eax
	movl	%eax, (%esp)
LEHB12:
	call	__ZN5CCore4Math11FastMulAlgoIN3App12Private_60054BaseELb0EE9Toom44MulEPjPKjS8_jNS5_10UnsafeWorkE
LEHE12:
	movl	1064(%esp), %eax
	cmpl	%ebx, %eax
	je	L1456
	movl	%eax, (%esp)
	call	__ZN5CCore16TaskMemStackFreeEPv
L1456:
	addl	$1076, %esp
	.cfi_remember_state
	.cfi_def_cfa_offset 12
	popl	%ebx
	.cfi_restore 3
	.cfi_def_cfa_offset 8
	popl	%esi
	.cfi_restore 6
	.cfi_def_cfa_offset 4
	ret
L1454:
	.cfi_restore_state
	movl	1064(%esp), %edx
	movl	%eax, %esi
	cmpl	%ebx, %edx
	je	L1455
	movl	%edx, (%esp)
	vzeroupper
	call	__ZN5CCore16TaskMemStackFreeEPv
L1453:
	movl	%esi, (%esp)
LEHB13:
	call	__Unwind_Resume
LEHE13:
L1455:
	vzeroupper
	jmp	L1453
	.cfi_endproc
LFE5030:
	.section	.gcc_except_table,"w"
LLSDA5030:
	.byte	0xff
	.byte	0xff
	.byte	0x1
	.uleb128 LLSDACSE5030-LLSDACSB5030
LLSDACSB5030:
	.uleb128 LEHB11-LFB5030
	.uleb128 LEHE11-LEHB11
	.uleb128 0
	.uleb128 0
	.uleb128 LEHB12-LFB5030
	.uleb128 LEHE12-LEHB12
	.uleb128 L1454-LFB5030
	.uleb128 0
	.uleb128 LEHB13-LFB5030
	.uleb128 LEHE13-LEHB13
	.uleb128 0
	.uleb128 0
LLSDACSE5030:
	.section	.text$_ZN5CCore4Math11FastMulAlgoIN3App12Private_60054BaseELb0EE9Toom44MulEPjPKjS8_j,"x"
	.linkonce discard
	.section	.text$_ZN5CCore4Math11FastMulAlgoIN3App12Private_60054BaseELb0EE6TopMulEPjPKjS8_j,"x"
	.linkonce discard
	.p2align 4,,15
	.globl	__ZN5CCore4Math11FastMulAlgoIN3App12Private_60054BaseELb0EE6TopMulEPjPKjS8_j
	.def	__ZN5CCore4Math11FastMulAlgoIN3App12Private_60054BaseELb0EE6TopMulEPjPKjS8_j;	.scl	2;	.type	32;	.endef
__ZN5CCore4Math11FastMulAlgoIN3App12Private_60054BaseELb0EE6TopMulEPjPKjS8_j:
LFB5035:
	.cfi_startproc
	.cfi_personality 0,___gxx_personality_v0
	.cfi_lsda 0,LLSDA5035
	pushl	%ebp
	.cfi_def_cfa_offset 8
	.cfi_offset 5, -8
	pushl	%edi
	.cfi_def_cfa_offset 12
	.cfi_offset 7, -12
	movl	$6, %edi
	pushl	%esi
	.cfi_def_cfa_offset 16
	.cfi_offset 6, -16
	movl	$64, %esi
	pushl	%ebx
	.cfi_def_cfa_offset 20
	.cfi_offset 3, -20
	subl	$1100, %esp
	.cfi_def_cfa_offset 1120
	movl	1132(%esp), %ebx
	testl	%ebx, %ebx
	jne	L1481
L1459:
	shrl	$5, %esi
	addl	$1, %esi
	movl	%esi, (%esp)
	addl	%esi, %esi
LEHB14:
	call	__ZN5CCore4Math11FastMulAlgoIN3App12Private_60054BaseELb0EE7FFTAlgo11UMulTempLenEj
	movl	%edi, %ecx
	xorl	%edx, %edx
	movl	%eax, %ebp
	movl	$2, %eax
	sall	%cl, %eax
	leal	1(%eax), %edi
	movl	%ebp, %eax
	notl	%eax
	divl	%edi
	cmpl	%eax, %esi
	ja	L1482
L1462:
	imull	%esi, %edi
	leal	56(%esp), %eax
	movl	%eax, (%esp)
	addl	%ebp, %edi
	movl	%edi, 4(%esp)
	call	__ZN5CCore4Math11FastMulAlgoIN3App12Private_60054BaseELb0EE4TempC1Ej
LEHE14:
	movl	1080(%esp), %eax
	movl	%eax, 44(%esp)
	testl	%ebx, %ebx
	jne	L1483
	movl	$29, %edx
	movl	$64, %ebp
	movl	$6, %esi
L1463:
	movl	%eax, 28(%esp)
	movl	1128(%esp), %eax
	movl	%ebx, 24(%esp)
	movl	%edx, 8(%esp)
	movl	%ebp, 4(%esp)
	movl	%eax, 20(%esp)
	movl	1124(%esp), %eax
	movl	%esi, (%esp)
	movl	%eax, 16(%esp)
	movl	1120(%esp), %eax
	movl	%eax, 12(%esp)
LEHB15:
	call	__ZN5CCore4Math6FFTMulINS0_11FastMulAlgoIN3App12Private_60054BaseELb0EE7FFTAlgoEE12InternalUMulEjjjPjPKjSB_jNS6_10UnsafeWorkE
LEHE15:
	movl	1080(%esp), %eax
	leal	56(%esp), %ebx
	cmpl	%ebx, %eax
	je	L1479
	movl	%eax, (%esp)
	call	__ZN5CCore16TaskMemStackFreeEPv
L1479:
	addl	$1100, %esp
	.cfi_remember_state
	.cfi_def_cfa_offset 20
	popl	%ebx
	.cfi_restore 3
	.cfi_def_cfa_offset 16
	popl	%esi
	.cfi_restore 6
	.cfi_def_cfa_offset 12
	popl	%edi
	.cfi_restore 7
	.cfi_def_cfa_offset 8
	popl	%ebp
	.cfi_restore 5
	.cfi_def_cfa_offset 4
	ret
	.p2align 4,,10
L1481:
	.cfi_restore_state
	movl	%ebx, (%esp)
	movl	$1, %esi
	movl	%ebx, %edi
	call	__ZN5CCore5Quick9ScanMSBitEj
	movl	$5, %edx
	addl	$1, %eax
	cmpl	$5, %eax
	cmovb	%edx, %eax
	addl	$5, %eax
	shrl	%eax
	leal	1(%eax), %edx
	movl	%edx, %ecx
	sall	%cl, %esi
	leal	-4(%eax), %ecx
	movl	$-1, %eax
	sall	%cl, %eax
	notl	%eax
	testl	%ebx, %eax
	setne	%al
	shrl	%cl, %edi
	movzbl	%al, %eax
	movl	%edi, %ecx
	addl	%eax, %ecx
	movl	%esi, %eax
	subl	%edx, %eax
	shrl	%eax
	cmpl	%eax, %ecx
	jbe	L1484
	.p2align 4,,10
L1460:
	leal	1(%edx), %edi
	movl	$1, %esi
	movl	$-1, %eax
	movl	%edi, %ecx
	sall	%cl, %esi
	leal	-4(%edx), %ecx
	movl	%esi, %ebp
	movl	%edi, %edx
	sall	%cl, %eax
	subl	%edi, %ebp
	notl	%eax
	shrl	%ebp
	testl	%ebx, %eax
	setne	%al
	movzbl	%al, %eax
	movl	%eax, 40(%esp)
	movl	%ebx, %eax
	shrl	%cl, %eax
	movl	%eax, %ecx
	movl	40(%esp), %eax
	addl	%ecx, %eax
	cmpl	%eax, %ebp
	jb	L1460
	jmp	L1459
	.p2align 4,,10
L1483:
	movl	%ebx, (%esp)
	movl	$1, %ebp
	movl	$-1, %esi
	call	__ZN5CCore5Quick9ScanMSBitEj
	movl	$5, %edx
	addl	$1, %eax
	cmpl	$5, %eax
	cmovb	%edx, %eax
	addl	$5, %eax
	shrl	%eax
	leal	1(%eax), %edi
	movl	%edi, %ecx
	sall	%cl, %ebp
	leal	-4(%eax), %ecx
	movl	%ebp, %edx
	xorl	%eax, %eax
	sall	%cl, %esi
	subl	%edi, %edx
	notl	%esi
	shrl	%edx
	testl	%ebx, %esi
	movl	%ebx, %esi
	setne	%al
	shrl	%cl, %esi
	addl	%esi, %eax
	cmpl	%edx, %eax
	jbe	L1485
	.p2align 4,,10
L1464:
	leal	1(%edi), %esi
	movl	$1, %ebp
	movl	$-1, %eax
	movl	%esi, %ecx
	sall	%cl, %ebp
	leal	-4(%edi), %ecx
	movl	%ebp, %edx
	movl	%esi, %edi
	sall	%cl, %eax
	subl	%esi, %edx
	notl	%eax
	shrl	%edx
	testl	%ebx, %eax
	setne	%al
	movzbl	%al, %eax
	movl	%eax, 40(%esp)
	movl	%ebx, %eax
	shrl	%cl, %eax
	movl	%eax, %ecx
	movl	40(%esp), %eax
	addl	%ecx, %eax
	cmpl	%eax, %edx
	jb	L1464
	movl	44(%esp), %eax
	jmp	L1463
	.p2align 4,,10
L1482:
	movl	%ebp, 8(%esp)
	movl	%edi, 4(%esp)
	movl	%esi, (%esp)
LEHB16:
	call	__ZN5CCore18GuardLenOfOverflowEjjj
LEHE16:
	jmp	L1462
L1484:
	movl	%edx, %edi
	jmp	L1459
L1485:
	movl	%edi, %esi
	movl	44(%esp), %eax
	jmp	L1463
L1471:
	movl	1080(%esp), %edx
	movl	%eax, %ebx
	leal	56(%esp), %eax
	cmpl	%eax, %edx
	je	L1478
	movl	%edx, (%esp)
	vzeroupper
	call	__ZN5CCore16TaskMemStackFreeEPv
L1468:
	movl	%ebx, (%esp)
LEHB17:
	call	__Unwind_Resume
LEHE17:
L1478:
	vzeroupper
	jmp	L1468
	.cfi_endproc
LFE5035:
	.section	.gcc_except_table,"w"
LLSDA5035:
	.byte	0xff
	.byte	0xff
	.byte	0x1
	.uleb128 LLSDACSE5035-LLSDACSB5035
LLSDACSB5035:
	.uleb128 LEHB14-LFB5035
	.uleb128 LEHE14-LEHB14
	.uleb128 0
	.uleb128 0
	.uleb128 LEHB15-LFB5035
	.uleb128 LEHE15-LEHB15
	.uleb128 L1471-LFB5035
	.uleb128 0
	.uleb128 LEHB16-LFB5035
	.uleb128 LEHE16-LEHB16
	.uleb128 0
	.uleb128 0
	.uleb128 LEHB17-LFB5035
	.uleb128 LEHE17-LEHB17
	.uleb128 0
	.uleb128 0
LLSDACSE5035:
	.section	.text$_ZN5CCore4Math11FastMulAlgoIN3App12Private_60054BaseELb0EE6TopMulEPjPKjS8_j,"x"
	.linkonce discard
	.section	.text$_ZN3App12Private_600516TestIntegerSpeedIN5CCore4Math11FastMulAlgoINS0_4BaseELb0EEEE8funcUMulEjj,"x"
	.linkonce discard
	.align 2
	.p2align 4,,15
	.globl	__ZN3App12Private_600516TestIntegerSpeedIN5CCore4Math11FastMulAlgoINS0_4BaseELb0EEEE8funcUMulEjj
	.def	__ZN3App12Private_600516TestIntegerSpeedIN5CCore4Math11FastMulAlgoINS0_4BaseELb0EEEE8funcUMulEjj;	.scl	2;	.type	32;	.endef
__ZN3App12Private_600516TestIntegerSpeedIN5CCore4Math11FastMulAlgoINS0_4BaseELb0EEEE8funcUMulEjj:
LFB4942:
	.cfi_startproc
	pushl	%esi
	.cfi_def_cfa_offset 8
	.cfi_offset 6, -8
	pushl	%ebx
	.cfi_def_cfa_offset 12
	.cfi_offset 3, -12
	subl	$36, %esp
	.cfi_def_cfa_offset 48
	movl	48(%esp), %ecx
	movl	52(%esp), %eax
	movl	56(%esp), %edx
	movl	20(%ecx), %ebx
	cmpl	%edx, %eax
	je	L1500
	jnb	L1493
	movl	%eax, %ecx
	movl	%edx, %eax
	movl	%ecx, %edx
L1493:
	testl	%edx, %edx
	jne	L1494
	movl	%ebx, 48(%esp)
	movl	%eax, 52(%esp)
	addl	$36, %esp
	.cfi_remember_state
	.cfi_def_cfa_offset 12
	popl	%ebx
	.cfi_restore 3
	.cfi_def_cfa_offset 8
	popl	%esi
	.cfi_restore 6
	.cfi_def_cfa_offset 4
	jmp	__ZN5CCore4Math15IntegerFastAlgo4NullEPjj
	.p2align 4,,10
L1494:
	.cfi_restore_state
	addl	$36, %esp
	.cfi_remember_state
	.cfi_def_cfa_offset 12
	popl	%ebx
	.cfi_restore 3
	.cfi_def_cfa_offset 8
	popl	%esi
	.cfi_restore 6
	.cfi_def_cfa_offset 4
	jmp	__ZN5CCore4Math11FastMulAlgoIN3App12Private_60054BaseELb0EE4UMulEPjPKjjS8_j.part.71
	.p2align 4,,10
L1500:
	.cfi_restore_state
	movl	16(%ecx), %esi
	movl	12(%ecx), %edx
	cmpl	$29, %eax
	jbe	L1501
	movl	%eax, 12(%esp)
	movl	%esi, 8(%esp)
	movl	%edx, 4(%esp)
	movl	%ebx, (%esp)
	cmpl	$109, %eax
	jbe	L1502
	cmpl	$169, %eax
	jbe	L1503
	cmpl	$3999, %eax
	jbe	L1504
	call	__ZN5CCore4Math11FastMulAlgoIN3App12Private_60054BaseELb0EE6TopMulEPjPKjS8_j
	jmp	L1498
	.p2align 4,,10
L1501:
	testl	%eax, %eax
	jne	L1505
L1498:
	addl	$36, %esp
	.cfi_remember_state
	.cfi_def_cfa_offset 12
	popl	%ebx
	.cfi_restore 3
	.cfi_def_cfa_offset 8
	popl	%esi
	.cfi_restore 6
	.cfi_def_cfa_offset 4
	ret
	.p2align 4,,10
L1504:
	.cfi_restore_state
	call	__ZN5CCore4Math11FastMulAlgoIN3App12Private_60054BaseELb0EE9Toom44MulEPjPKjS8_j
	jmp	L1498
	.p2align 4,,10
L1505:
	movl	%eax, 16(%esp)
	movl	%esi, 12(%esp)
	movl	%eax, 8(%esp)
	movl	%edx, 4(%esp)
	movl	%ebx, (%esp)
	call	*__imp____gmpn_mul
	jmp	L1498
	.p2align 4,,10
L1502:
	call	__ZN5CCore4Math11FastMulAlgoIN3App12Private_60054BaseELb0EE9Toom22MulEPjPKjS8_j
	jmp	L1498
	.p2align 4,,10
L1503:
	call	__ZN5CCore4Math11FastMulAlgoIN3App12Private_60054BaseELb0EE9Toom33MulEPjPKjS8_j
	jmp	L1498
	.cfi_endproc
LFE4942:
	.section	.text$_ZN5CCore6PutobjIRNS_10PrintCountIvEEJNS_6StrLenEEEEvOT_DpRKT0_,"x"
	.linkonce discard
	.p2align 4,,15
	.globl	__ZN5CCore6PutobjIRNS_10PrintCountIvEEJNS_6StrLenEEEEvOT_DpRKT0_
	.def	__ZN5CCore6PutobjIRNS_10PrintCountIvEEJNS_6StrLenEEEEvOT_DpRKT0_;	.scl	2;	.type	32;	.endef
__ZN5CCore6PutobjIRNS_10PrintCountIvEEJNS_6StrLenEEEEvOT_DpRKT0_:
LFB5171:
	.cfi_startproc
	pushl	%edi
	.cfi_def_cfa_offset 8
	.cfi_offset 7, -8
	pushl	%esi
	.cfi_def_cfa_offset 12
	.cfi_offset 6, -12
	pushl	%ebx
	.cfi_def_cfa_offset 16
	.cfi_offset 3, -16
	subl	$16, %esp
	.cfi_def_cfa_offset 32
	movl	36(%esp), %eax
	movl	32(%esp), %esi
	movl	4(%eax), %edi
	movl	(%eax), %ebx
	movl	%edi, 4(%esp)
	movl	%ebx, (%esp)
	call	__ZN5CCore7Utf8LenENS_6StrLenE
	testl	%edi, %edi
	je	L1522
	addl	%ebx, %edi
	jmp	L1512
	.p2align 4,,10
L1524:
	subl	$1, %eax
	movl	%eax, 8(%esi)
	testl	%eax, %eax
	jne	L1510
L1509:
	addl	$1, 4(%esi)
L1510:
	addl	$1, %ebx
	cmpl	%ebx, %edi
	je	L1522
L1512:
	movl	8(%esi), %eax
	testl	%eax, %eax
	jne	L1524
	movzbl	(%ebx), %eax
	testb	%al, %al
	jns	L1509
	movl	%eax, %edx
	andl	$-32, %edx
	cmpb	$-64, %dl
	je	L1513
	movl	%eax, %edx
	andl	$-16, %edx
	cmpb	$-32, %dl
	je	L1514
	andl	$-8, %eax
	cmpb	$-16, %al
	jne	L1509
	movl	$3, %eax
	jmp	L1511
	.p2align 4,,10
L1522:
	addl	$16, %esp
	.cfi_remember_state
	.cfi_def_cfa_offset 16
	popl	%ebx
	.cfi_restore 3
	.cfi_def_cfa_offset 12
	popl	%esi
	.cfi_restore 6
	.cfi_def_cfa_offset 8
	popl	%edi
	.cfi_restore 7
	.cfi_def_cfa_offset 4
	ret
	.p2align 4,,10
L1513:
	.cfi_restore_state
	movl	$1, %eax
L1511:
	movl	%eax, 8(%esi)
	jmp	L1510
	.p2align 4,,10
L1514:
	movl	$2, %eax
	jmp	L1511
	.cfi_endproc
LFE5171:
	.section	.text$_ZN5CCore9PrintfDevIRNS_10PrintCountIvEEE4findEv,"x"
	.linkonce discard
	.align 2
	.p2align 4,,15
	.globl	__ZN5CCore9PrintfDevIRNS_10PrintCountIvEEE4findEv
	.def	__ZN5CCore9PrintfDevIRNS_10PrintCountIvEEE4findEv;	.scl	2;	.type	32;	.endef
__ZN5CCore9PrintfDevIRNS_10PrintCountIvEEE4findEv:
LFB5181:
	.cfi_startproc
	pushl	%ebp
	.cfi_def_cfa_offset 8
	.cfi_offset 5, -8
	pushl	%edi
	.cfi_def_cfa_offset 12
	.cfi_offset 7, -12
	pushl	%esi
	.cfi_def_cfa_offset 16
	.cfi_offset 6, -16
	pushl	%ebx
	.cfi_def_cfa_offset 20
	.cfi_offset 3, -20
	subl	$28, %esp
	.cfi_def_cfa_offset 48
	movl	48(%esp), %esi
	movl	4(%esi), %eax
	.p2align 4,,10
L1537:
	movl	$35, 4(%esp)
	movl	%eax, (%esp)
	call	__ZN5CCore13PrintfDevBase4FindEPKcc
	movl	4(%esi), %ebx
	movl	(%esi), %ecx
	cmpl	%ebx, %eax
	jne	L1531
	jmp	L1526
	.p2align 4,,10
L1554:
	subl	$1, %edx
	movl	%edx, 8(%ecx)
	testl	%edx, %edx
	jne	L1529
L1528:
	addl	$1, 4(%ecx)
L1529:
	addl	$1, %ebx
	cmpl	%ebx, %eax
	je	L1526
L1531:
	movl	8(%ecx), %edx
	testl	%edx, %edx
	jne	L1554
	movzbl	(%ebx), %ebp
	movl	%ebp, %edx
	testb	%dl, %dl
	jns	L1528
	movl	%ebp, %edi
	andl	$-32, %edi
	movl	%edi, %edx
	cmpb	$-64, %dl
	je	L1540
	movl	%ebp, %edi
	andl	$-16, %edi
	movl	%edi, %edx
	cmpb	$-32, %dl
	je	L1541
	movl	%ebp, %edx
	andl	$-8, %edx
	cmpb	$-16, %dl
	jne	L1528
	movl	$3, %edx
L1530:
	addl	$1, %ebx
	movl	%edx, 8(%ecx)
	cmpl	%ebx, %eax
	jne	L1531
	.p2align 4,,10
L1526:
	cmpb	$0, (%eax)
	je	L1532
	cmpb	$35, 1(%eax)
	jne	L1533
	movl	8(%ecx), %edx
	testl	%edx, %edx
	je	L1536
	subl	$1, %edx
	movl	%edx, 8(%ecx)
	testl	%edx, %edx
	je	L1536
L1535:
	addl	$2, %eax
	movl	%eax, 4(%esi)
	jmp	L1537
	.p2align 4,,10
L1536:
	addl	$1, 4(%ecx)
	jmp	L1535
	.p2align 4,,10
L1540:
	movl	$1, %edx
	jmp	L1530
	.p2align 4,,10
L1541:
	movl	$2, %edx
	jmp	L1530
	.p2align 4,,10
L1532:
	movl	%eax, 4(%esi)
	addl	$28, %esp
	.cfi_remember_state
	.cfi_def_cfa_offset 20
	xorl	%eax, %eax
	xorl	%edx, %edx
	popl	%ebx
	.cfi_restore 3
	.cfi_def_cfa_offset 16
	popl	%esi
	.cfi_restore 6
	.cfi_def_cfa_offset 12
	popl	%edi
	.cfi_restore 7
	.cfi_def_cfa_offset 8
	popl	%ebp
	.cfi_restore 5
	.cfi_def_cfa_offset 4
	ret
	.p2align 4,,10
L1533:
	.cfi_restore_state
	leal	1(%eax), %ebx
	movl	$59, 4(%esp)
	movl	%ebx, (%esp)
	call	__ZN5CCore13PrintfDevBase4FindEPKcc
	cmpb	$0, (%eax)
	movl	%eax, %edx
	je	L1538
	leal	1(%eax), %eax
	movl	%eax, 4(%esi)
	addl	$28, %esp
	.cfi_remember_state
	.cfi_def_cfa_offset 20
	movl	%ebx, %eax
	popl	%ebx
	.cfi_restore 3
	.cfi_def_cfa_offset 16
	popl	%esi
	.cfi_restore 6
	.cfi_def_cfa_offset 12
	popl	%edi
	.cfi_restore 7
	.cfi_def_cfa_offset 8
	popl	%ebp
	.cfi_restore 5
	.cfi_def_cfa_offset 4
	ret
L1538:
	.cfi_restore_state
	movl	%ebx, 4(%esi)
	addl	$28, %esp
	.cfi_def_cfa_offset 20
	movl	%ebx, %eax
	movl	%ebx, %edx
	popl	%ebx
	.cfi_restore 3
	.cfi_def_cfa_offset 16
	popl	%esi
	.cfi_restore 6
	.cfi_def_cfa_offset 12
	popl	%edi
	.cfi_restore 7
	.cfi_def_cfa_offset 8
	popl	%ebp
	.cfi_restore 5
	.cfi_def_cfa_offset 4
	ret
	.cfi_endproc
LFE5181:
	.text
	.p2align 4,,15
	.def	__ZN5CCore6PrintfIRNS_10PrintCountIvEEJyEEEvOT_PKcDpRKT0_.constprop.77;	.scl	3;	.type	32;	.endef
__ZN5CCore6PrintfIRNS_10PrintCountIvEEJyEEEvOT_PKcDpRKT0_.constprop.77:
LFB5287:
	.cfi_startproc
	pushl	%ebp
	.cfi_def_cfa_offset 8
	.cfi_offset 5, -8
	pushl	%edi
	.cfi_def_cfa_offset 12
	.cfi_offset 7, -12
	pushl	%esi
	.cfi_def_cfa_offset 16
	.cfi_offset 6, -16
	movl	%edx, %esi
	pushl	%ebx
	.cfi_def_cfa_offset 20
	.cfi_offset 3, -20
	subl	$204, %esp
	.cfi_def_cfa_offset 224
	movl	%eax, 52(%esp)
	leal	52(%esp), %eax
	movl	%eax, (%esp)
	movl	$LC4, 56(%esp)
	call	__ZN5CCore9PrintfDevIRNS_10PrintCountIvEEE4findEv
	testl	%eax, %eax
	je	L1556
	movl	%eax, 4(%esp)
	leal	60(%esp), %eax
	movl	52(%esp), %ebx
	movl	%edx, 8(%esp)
	movl	%eax, (%esp)
	call	__ZN5CCore11IntPrintOptC1EPKcS2_
	movl	4(%esi), %eax
	movl	(%esi), %ecx
	movl	76(%esp), %edx
	movl	64(%esp), %esi
	movl	%eax, 32(%esp)
	movl	60(%esp), %eax
	movl	%edx, 88(%esp)
	movl	%esi, 84(%esp)
	movl	%eax, 40(%esp)
	movl	68(%esp), %eax
	movl	%eax, 28(%esp)
	movl	72(%esp), %eax
	movl	%eax, 36(%esp)
	movl	80(%esp), %eax
	movl	%eax, 92(%esp)
	testl	%esi, %esi
	jne	L1557
	leal	177(%esp), %ebp
	orl	%edx, %eax
	setne	96(%esp)
	movl	%ebp, 188(%esp)
	movl	%ebp, 184(%esp)
	testl	%eax, %eax
	jne	L2146
	leal	176(%esp), %eax
	movb	%cl, 176(%esp)
	movl	%eax, 180(%esp)
L1559:
	movl	28(%esp), %esi
	testl	%esi, %esi
	jne	L2147
L1573:
	movl	40(%esp), %edi
	movl	%ebp, %ecx
	subl	%eax, %ecx
	cmpl	%ecx, %edi
	jbe	L1744
	movl	84(%esp), %esi
	subl	%ecx, %edi
	movl	%edi, %edx
	testl	%esi, %esi
	jne	L1745
	cmpl	$2, 36(%esp)
	je	L1746
L1745:
	movl	36(%esp), %edi
	cmpl	$1, %edi
	je	L1746
	jb	L1749
	cmpl	$2, %edi
	jne	L1556
	movl	184(%esp), %ecx
	movl	%ebp, %edi
	subl	%ecx, %edi
	cmpl	%eax, %ecx
	je	L1777
	movl	%eax, %esi
	movl	%edx, 28(%esp)
	jmp	L1770
L2149:
	subl	$1, %eax
	movl	%eax, 8(%ebx)
	testl	%eax, %eax
	jne	L1775
L1774:
	addl	$1, 4(%ebx)
L1775:
	addl	$1, %esi
	cmpl	%esi, %ecx
	je	L2148
L1770:
	movl	8(%ebx), %eax
	testl	%eax, %eax
	jne	L2149
	movzbl	(%esi), %eax
	testb	%al, %al
	jns	L1774
	movl	%eax, %edx
	andl	$-32, %edx
	cmpb	$-64, %dl
	je	L1855
	movl	%eax, %edx
	andl	$-16, %edx
	cmpb	$-32, %dl
	je	L1856
	andl	$-8, %eax
	cmpb	$-16, %al
	jne	L1774
	movl	$4, %eax
L1776:
	subl	$1, %eax
	movl	%eax, 8(%ebx)
	jmp	L1775
	.p2align 4,,10
L1556:
	movl	56(%esp), %ebx
L1791:
	cmpb	$0, (%ebx)
	je	L2141
	.p2align 4,,10
L1804:
	movl	%ebx, (%esp)
	movl	$35, 4(%esp)
	call	__ZN5CCore13PrintfDevBase4FindEPKcc
	movl	56(%esp), %ecx
	movl	%eax, %ebx
	movl	52(%esp), %edx
	cmpl	%ecx, %eax
	jne	L1798
	jmp	L1793
	.p2align 4,,10
L2150:
	subl	$1, %eax
	movl	%eax, 8(%edx)
	testl	%eax, %eax
	jne	L1796
L1795:
	addl	$1, 4(%edx)
L1796:
	addl	$1, %ecx
	cmpl	%ecx, %ebx
	je	L1793
L1798:
	movl	8(%edx), %eax
	testl	%eax, %eax
	jne	L2150
	movzbl	(%ecx), %edi
	movl	%edi, %eax
	testb	%al, %al
	jns	L1795
	movl	%edi, %esi
	andl	$-32, %esi
	movl	%esi, %eax
	cmpb	$-64, %al
	je	L1861
	movl	%edi, %esi
	andl	$-16, %esi
	movl	%esi, %eax
	cmpb	$-32, %al
	je	L1862
	movl	%edi, %eax
	andl	$-8, %eax
	cmpb	$-16, %al
	jne	L1795
	movl	$3, %eax
L1797:
	addl	$1, %ecx
	movl	%eax, 8(%edx)
	cmpl	%ecx, %ebx
	jne	L1798
	.p2align 4,,10
L1793:
	cmpb	$0, (%ebx)
	je	L1799
	cmpb	$35, 1(%ebx)
	jne	L1800
	movl	8(%edx), %eax
	testl	%eax, %eax
	je	L1803
	subl	$1, %eax
	movl	%eax, 8(%edx)
	testl	%eax, %eax
	je	L1803
L1802:
	addl	$2, %ebx
	movl	%ebx, 56(%esp)
	jmp	L1804
	.p2align 4,,10
L1803:
	addl	$1, 4(%edx)
	jmp	L1802
	.p2align 4,,10
L1861:
	movl	$1, %eax
	jmp	L1797
	.p2align 4,,10
L1799:
	movl	%ebx, 56(%esp)
	cmpb	$0, (%ebx)
	jne	L1804
L2141:
	addl	$204, %esp
	.cfi_remember_state
	.cfi_def_cfa_offset 20
	popl	%ebx
	.cfi_restore 3
	.cfi_def_cfa_offset 16
	popl	%esi
	.cfi_restore 6
	.cfi_def_cfa_offset 12
	popl	%edi
	.cfi_restore 7
	.cfi_def_cfa_offset 8
	popl	%ebp
	.cfi_restore 5
	.cfi_def_cfa_offset 4
	ret
	.p2align 4,,10
L1862:
	.cfi_restore_state
	movl	$2, %eax
	jmp	L1797
	.p2align 4,,10
L1800:
	addl	$1, %ebx
	movl	$59, 4(%esp)
	movl	%ebx, (%esp)
	call	__ZN5CCore13PrintfDevBase4FindEPKcc
	cmpb	$0, (%eax)
	je	L1799
	leal	1(%eax), %ebx
	movl	%ebx, 56(%esp)
	jmp	L1791
L1557:
	leal	-2(%esi), %edx
	cmpl	$14, %edx
	ja	L2151
	cmpl	$16, %esi
	setne	%dl
	movl	%edx, %edi
	cmpl	$2, %eax
	je	L1562
	leal	177(%esp), %ebp
	cmpl	$1, %eax
	sete	%dl
	movl	%ebp, 188(%esp)
	andl	%edx, %edi
	cmpl	$2, %esi
	movl	%ebp, 184(%esp)
	setne	%dl
	movl	%ebp, 180(%esp)
	andl	%edi, %edx
	movb	%dl, 96(%esp)
	testb	%dl, %dl
	jne	L1561
	cmpl	$1, %eax
	jne	L1564
	cmpl	$2, %esi
	je	L1565
	cmpl	$16, %esi
	jne	L1564
	movb	$104, 176(%esp)
	leal	176(%esp), %ebp
L1564:
	movl	32(%esp), %eax
	orl	%ecx, %eax
	je	L1567
	xorl	%edi, %edi
	jmp	L1569
L2152:
	movl	180(%esp), %ebp
L1569:
	leal	-1(%ebp), %eax
	movl	%esi, 8(%esp)
	movl	%eax, 180(%esp)
	movl	32(%esp), %eax
	movl	%edi, 12(%esp)
	xorl	%edi, %edi
	movl	%ecx, (%esp)
	movl	%ecx, 44(%esp)
	movl	%eax, 4(%esp)
	call	___umoddi3
	movl	44(%esp), %ecx
	movzbl	LC1(%eax), %eax
	movb	%al, -1(%ebp)
	movl	32(%esp), %eax
	movl	84(%esp), %esi
	movl	%ecx, (%esp)
	movl	%edi, 12(%esp)
	movl	%eax, 4(%esp)
	movl	%esi, 8(%esp)
	call	___udivdi3
	movl	%eax, %ecx
	movl	%edx, %eax
	movl	%edx, 32(%esp)
	orl	%ecx, %eax
	jne	L2152
	movl	180(%esp), %eax
	cmpl	$2, 92(%esp)
	movl	%eax, 184(%esp)
	jne	L1807
	leal	-1(%eax), %edx
	movl	%edx, 180(%esp)
	movb	$120, -1(%eax)
	movl	180(%esp), %eax
	leal	-1(%eax), %edx
	movl	%edx, 180(%esp)
	movb	$48, -1(%eax)
	movl	180(%esp), %eax
L1807:
	cmpl	$1, 88(%esp)
	jne	L2143
	leal	-1(%eax), %edx
	movl	%edx, 180(%esp)
	movb	$43, -1(%eax)
	movl	180(%esp), %eax
L2143:
	movl	28(%esp), %esi
	movl	188(%esp), %ebp
	testl	%esi, %esi
	je	L1573
L2147:
	movl	184(%esp), %edx
	movl	%ebp, %ecx
	addl	$2, %esi
	movl	%edx, %edi
	subl	%edx, %ecx
	subl	%eax, %edi
	cmpl	28(%esp), %ecx
	movl	%edi, 32(%esp)
	leal	1(%ecx), %edi
	cmova	%edi, %esi
	movl	40(%esp), %edi
	addl	32(%esp), %esi
	cmpl	%edi, %esi
	jnb	L1576
	subl	%esi, %edi
	movl	36(%esp), %esi
	cmpl	$1, %esi
	je	L1578
	jb	L1579
	cmpl	$2, %esi
	jne	L1556
	cmpl	$0, 32(%esp)
	movl	8(%ebx), %esi
	je	L1677
	movl	%ecx, 36(%esp)
	movl	%edx, 32(%esp)
L1672:
	testl	%esi, %esi
	je	L1667
	subl	$1, %esi
	movl	%esi, 8(%ebx)
	testl	%esi, %esi
	jne	L1669
L1668:
	addl	$1, 4(%ebx)
	addl	$1, %eax
	cmpl	%eax, 32(%esp)
	je	L2153
L1667:
	movzbl	(%eax), %ecx
	testb	%cl, %cl
	jns	L1668
	movl	%ecx, %esi
	andl	$-32, %esi
	movl	%esi, %edx
	cmpb	$-64, %dl
	je	L1832
	movl	%ecx, %esi
	andl	$-16, %esi
	movl	%esi, %edx
	cmpb	$-32, %dl
	je	L1833
	andl	$-8, %ecx
	movl	$4, %esi
	cmpb	$-16, %cl
	jne	L1668
L1670:
	subl	$1, %esi
	movl	%esi, 8(%ebx)
L1669:
	addl	$1, %eax
	cmpl	%eax, 32(%esp)
	jne	L1672
	movl	36(%esp), %ecx
	movl	32(%esp), %edx
L1677:
	testl	%esi, %esi
	je	L1676
	subl	$1, %esi
	movl	%esi, 8(%ebx)
	testl	%esi, %esi
	je	L1676
	subl	$1, %edi
	jne	L1677
L1675:
	movl	28(%esp), %eax
	cmpl	%eax, %ecx
	jbe	L1678
	subl	%eax, %ecx
	leal	(%edx,%ecx), %eax
	testl	%ecx, %ecx
	je	L1679
	movl	%eax, %edi
L1686:
	testl	%esi, %esi
	je	L1680
	subl	$1, %esi
	movl	%esi, 8(%ebx)
	testl	%esi, %esi
	jne	L1682
L1681:
	addl	$1, 4(%ebx)
	addl	$1, %edx
	cmpl	%edx, %edi
	je	L2154
L1680:
	movzbl	(%edx), %ecx
	testb	%cl, %cl
	jns	L1681
	movl	%ecx, %esi
	andl	$-32, %esi
	movl	%esi, %eax
	cmpb	$-64, %al
	je	L1836
	movl	%ecx, %esi
	andl	$-16, %esi
	movl	%esi, %eax
	cmpb	$-32, %al
	je	L1837
	andl	$-8, %ecx
	movl	$4, %esi
	cmpb	$-16, %cl
	jne	L1681
L1683:
	subl	$1, %esi
	movl	%esi, 8(%ebx)
L1682:
	addl	$1, %edx
	cmpl	%edx, %edi
	jne	L1686
	movl	%edi, %eax
L1685:
	subl	$1, %esi
	movl	%esi, 8(%ebx)
	testl	%esi, %esi
	jne	L1692
L1684:
	addl	$1, 4(%ebx)
	xorl	%esi, %esi
	jmp	L1692
L2155:
	subl	$1, %esi
	movl	%esi, 8(%ebx)
	testl	%esi, %esi
	jne	L1690
L1689:
	addl	$1, 4(%ebx)
L1690:
	addl	$1, %eax
	cmpl	%eax, %ebp
	je	L1556
	movl	8(%ebx), %esi
L1692:
	testl	%esi, %esi
	jne	L2155
	movzbl	(%eax), %edx
	testb	%dl, %dl
	jns	L1689
	movl	%edx, %ecx
	andl	$-32, %ecx
	cmpb	$-64, %cl
	je	L1838
	movl	%edx, %ecx
	andl	$-16, %ecx
	cmpb	$-32, %cl
	je	L1839
	andl	$-8, %edx
	cmpb	$-16, %dl
	jne	L1689
	movl	$4, %edx
L1691:
	subl	$1, %edx
	movl	%edx, 8(%ebx)
	jmp	L1690
L1744:
	testl	%ecx, %ecx
	jne	L1790
	jmp	L1556
	.p2align 4,,10
L2156:
	subl	$1, %edx
	movl	%edx, 8(%ebx)
	testl	%edx, %edx
	jne	L1788
L1787:
	addl	$1, 4(%ebx)
L1788:
	addl	$1, %eax
	cmpl	%eax, %ebp
	je	L1556
L1790:
	movl	8(%ebx), %edx
	testl	%edx, %edx
	jne	L2156
	movzbl	(%eax), %edx
	testb	%dl, %dl
	jns	L1787
	movl	%edx, %ecx
	andl	$-32, %ecx
	cmpb	$-64, %cl
	je	L1859
	movl	%edx, %ecx
	andl	$-16, %ecx
	cmpb	$-32, %cl
	je	L1860
	andl	$-8, %edx
	cmpb	$-16, %dl
	jne	L1787
	movl	$3, %edx
L1789:
	movl	%edx, 8(%ebx)
	jmp	L1788
L2151:
	leal	177(%esp), %ebp
	movb	$1, 96(%esp)
	movl	%ebp, 188(%esp)
	movl	%ebp, 184(%esp)
	movl	%ebp, 180(%esp)
L1561:
	movl	%ebp, %eax
	jmp	L1559
L1676:
	addl	$1, 4(%ebx)
	subl	$1, %edi
	jne	L1676
	xorl	%esi, %esi
	jmp	L1675
L1578:
	movl	8(%ebx), %esi
L1629:
	testl	%esi, %esi
	je	L1628
	subl	$1, %esi
	movl	%esi, 8(%ebx)
	testl	%esi, %esi
	je	L1628
	subl	$1, %edi
	jne	L1629
L1627:
	movl	32(%esp), %edi
	testl	%edi, %edi
	je	L1630
	movl	%ecx, 32(%esp)
L1636:
	testl	%esi, %esi
	je	L1631
	subl	$1, %esi
	movl	%esi, 8(%ebx)
	testl	%esi, %esi
	jne	L1633
L1632:
	addl	$1, 4(%ebx)
	addl	$1, %eax
	cmpl	%eax, %edx
	je	L2157
L1631:
	movzbl	(%eax), %esi
	movl	%esi, %ecx
	testb	%cl, %cl
	jns	L1632
	movl	%esi, %edi
	andl	$-32, %edi
	movl	%edi, %ecx
	cmpb	$-64, %cl
	je	L1823
	movl	%esi, %edi
	andl	$-16, %edi
	movl	%edi, %ecx
	cmpb	$-32, %cl
	je	L1824
	andl	$-8, %esi
	movl	%esi, %ecx
	movl	$4, %esi
	cmpb	$-16, %cl
	jne	L1632
L1634:
	subl	$1, %esi
	movl	%esi, 8(%ebx)
L1633:
	addl	$1, %eax
	cmpl	%eax, %edx
	jne	L1636
	movl	32(%esp), %ecx
L1630:
	movl	28(%esp), %eax
	cmpl	%eax, %ecx
	jbe	L1637
	subl	%eax, %ecx
	addl	%edx, %ecx
	movl	%ecx, %edi
L1644:
	testl	%esi, %esi
	je	L1638
	subl	$1, %esi
	movl	%esi, 8(%ebx)
	testl	%esi, %esi
	jne	L1640
L1639:
	addl	$1, 4(%ebx)
	addl	$1, %edx
	cmpl	%edx, %edi
	je	L1642
L1638:
	movzbl	(%edx), %eax
	testb	%al, %al
	jns	L1639
	movl	%eax, %esi
	andl	$-32, %esi
	movl	%esi, %ecx
	cmpb	$-64, %cl
	je	L1826
	movl	%eax, %esi
	andl	$-16, %esi
	movl	%esi, %ecx
	cmpb	$-32, %cl
	je	L1827
	andl	$-8, %eax
	movl	$4, %esi
	cmpb	$-16, %al
	jne	L1639
L1641:
	subl	$1, %esi
	movl	%esi, 8(%ebx)
L1640:
	addl	$1, %edx
	cmpl	%edx, %edi
	jne	L1644
	subl	$1, %esi
	movl	%esi, 8(%ebx)
	testl	%esi, %esi
	jne	L1810
L1642:
	addl	$1, 4(%ebx)
	xorl	%esi, %esi
L1810:
	movl	28(%esp), %ecx
	addl	%edx, %ecx
	movl	%ecx, %edi
	jmp	L1649
L2158:
	subl	$1, %esi
	movl	%esi, 8(%ebx)
	testl	%esi, %esi
	jne	L1647
L1646:
	addl	$1, 4(%ebx)
L1647:
	addl	$1, %edx
	cmpl	%edi, %edx
	je	L1556
	movl	8(%ebx), %esi
L1649:
	testl	%esi, %esi
	jne	L2158
	movzbl	(%edx), %eax
	testb	%al, %al
	jns	L1646
	movl	%eax, %esi
	andl	$-32, %esi
	movl	%esi, %ecx
	cmpb	$-64, %cl
	je	L1828
	movl	%eax, %esi
	andl	$-16, %esi
	movl	%esi, %ecx
	cmpb	$-32, %cl
	je	L1829
	andl	$-8, %eax
	cmpb	$-16, %al
	jne	L1646
	movl	$4, %eax
L1648:
	subl	$1, %eax
	movl	%eax, 8(%ebx)
	jmp	L1647
L1628:
	addl	$1, 4(%ebx)
	subl	$1, %edi
	jne	L1628
	xorl	%esi, %esi
	jmp	L1627
L2146:
	movl	%ebp, 180(%esp)
	movl	%ebp, %eax
	jmp	L1559
L1576:
	movl	32(%esp), %edi
	movl	8(%ebx), %esi
	testl	%edi, %edi
	je	L1709
	movl	%ecx, 32(%esp)
L1715:
	testl	%esi, %esi
	je	L1710
	subl	$1, %esi
	movl	%esi, 8(%ebx)
	testl	%esi, %esi
	jne	L1712
L1711:
	addl	$1, 4(%ebx)
	addl	$1, %eax
	cmpl	%eax, %edx
	je	L2159
L1710:
	movzbl	(%eax), %esi
	movl	%esi, %ecx
	testb	%cl, %cl
	jns	L1711
	movl	%esi, %edi
	andl	$-32, %edi
	movl	%edi, %ecx
	cmpb	$-64, %cl
	je	L1842
	movl	%esi, %edi
	andl	$-16, %edi
	movl	%edi, %ecx
	cmpb	$-32, %cl
	je	L1843
	andl	$-8, %esi
	movl	%esi, %ecx
	movl	$4, %esi
	cmpb	$-16, %cl
	jne	L1711
L1713:
	subl	$1, %esi
	movl	%esi, 8(%ebx)
L1712:
	addl	$1, %eax
	cmpl	%eax, %edx
	jne	L1715
	movl	32(%esp), %ecx
L1709:
	movl	28(%esp), %eax
	cmpl	%eax, %ecx
	jbe	L1716
	subl	%eax, %ecx
	leal	(%edx,%ecx), %eax
	testl	%ecx, %ecx
	je	L1717
	movl	%eax, %edi
L1724:
	testl	%esi, %esi
	je	L1718
	subl	$1, %esi
	movl	%esi, 8(%ebx)
	testl	%esi, %esi
	jne	L1720
L1719:
	addl	$1, 4(%ebx)
	addl	$1, %edx
	cmpl	%edi, %edx
	je	L2160
L1718:
	movzbl	(%edx), %ecx
	testb	%cl, %cl
	jns	L1719
	movl	%ecx, %esi
	andl	$-32, %esi
	movl	%esi, %eax
	cmpb	$-64, %al
	je	L1845
	movl	%ecx, %esi
	andl	$-16, %esi
	movl	%esi, %eax
	cmpb	$-32, %al
	je	L1846
	andl	$-8, %ecx
	movl	$4, %esi
	cmpb	$-16, %cl
	jne	L1719
L1721:
	subl	$1, %esi
	movl	%esi, 8(%ebx)
L1720:
	addl	$1, %edx
	cmpl	%edx, %edi
	jne	L1724
	movl	%edi, %eax
L1723:
	subl	$1, %esi
	movl	%esi, 8(%ebx)
	testl	%esi, %esi
	jne	L1730
	jmp	L1722
	.p2align 4,,10
L2161:
	subl	$1, %esi
	movl	%esi, 8(%ebx)
	testl	%esi, %esi
	jne	L1728
L1727:
	addl	$1, 4(%ebx)
L1728:
	addl	$1, %eax
	cmpl	%eax, %ebp
	je	L1556
	movl	8(%ebx), %esi
L1730:
	testl	%esi, %esi
	jne	L2161
	movzbl	(%eax), %edx
	testb	%dl, %dl
	jns	L1727
	movl	%edx, %ecx
	andl	$-32, %ecx
	cmpb	$-64, %cl
	je	L1847
	movl	%edx, %ecx
	andl	$-16, %ecx
	cmpb	$-32, %cl
	je	L1848
	andl	$-8, %edx
	cmpb	$-16, %dl
	jne	L1727
	movl	$4, %edx
L1729:
	subl	$1, %edx
	movl	%edx, 8(%ebx)
	jmp	L1728
L1579:
	cmpl	$0, 32(%esp)
	movl	8(%ebx), %esi
	je	L1581
	movl	%ecx, 36(%esp)
	movl	%edx, 32(%esp)
L1587:
	testl	%esi, %esi
	je	L1582
	subl	$1, %esi
	movl	%esi, 8(%ebx)
	testl	%esi, %esi
	jne	L1584
L1583:
	addl	$1, 4(%ebx)
	addl	$1, %eax
	cmpl	%eax, 32(%esp)
	je	L2162
L1582:
	movzbl	(%eax), %ecx
	testb	%cl, %cl
	jns	L1583
	movl	%ecx, %esi
	andl	$-32, %esi
	movl	%esi, %edx
	cmpb	$-64, %dl
	je	L1813
	movl	%ecx, %esi
	andl	$-16, %esi
	movl	%esi, %edx
	cmpb	$-32, %dl
	je	L1814
	andl	$-8, %ecx
	movl	$4, %esi
	cmpb	$-16, %cl
	jne	L1583
L1585:
	subl	$1, %esi
	movl	%esi, 8(%ebx)
L1584:
	addl	$1, %eax
	cmpl	%eax, 32(%esp)
	jne	L1587
	movl	36(%esp), %ecx
	movl	32(%esp), %edx
L1581:
	movl	28(%esp), %eax
	cmpl	%eax, %ecx
	jbe	L1588
	subl	%eax, %ecx
	leal	(%edx,%ecx), %eax
	testl	%ecx, %ecx
	je	L1589
	movl	%eax, 28(%esp)
L1596:
	testl	%esi, %esi
	je	L1590
	subl	$1, %esi
	movl	%esi, 8(%ebx)
	testl	%esi, %esi
	jne	L1592
L1591:
	addl	$1, 4(%ebx)
	addl	$1, %edx
	cmpl	%edx, 28(%esp)
	je	L2163
L1590:
	movzbl	(%edx), %ecx
	testb	%cl, %cl
	jns	L1591
	movl	%ecx, %esi
	andl	$-32, %esi
	movl	%esi, %eax
	cmpb	$-64, %al
	je	L1816
	movl	%ecx, %esi
	andl	$-16, %esi
	movl	%esi, %eax
	cmpb	$-32, %al
	je	L1817
	andl	$-8, %ecx
	movl	$4, %esi
	cmpb	$-16, %cl
	jne	L1591
L1593:
	subl	$1, %esi
	movl	%esi, 8(%ebx)
L1592:
	addl	$1, %edx
	cmpl	%edx, 28(%esp)
	jne	L1596
	movl	28(%esp), %eax
L1595:
	subl	$1, %esi
	movl	%esi, 8(%ebx)
	testl	%esi, %esi
	jne	L1603
L1594:
	addl	$1, 4(%ebx)
	xorl	%esi, %esi
	jmp	L1603
L2164:
	subl	$1, %esi
	movl	%esi, 8(%ebx)
	testl	%esi, %esi
	jne	L1600
L1599:
	addl	$1, 4(%ebx)
L1600:
	addl	$1, %eax
	movl	8(%ebx), %esi
	cmpl	%ebp, %eax
	je	L1624
L1603:
	testl	%esi, %esi
	jne	L2164
	movzbl	(%eax), %edx
	testb	%dl, %dl
	jns	L1599
	movl	%edx, %ecx
	andl	$-32, %ecx
	cmpb	$-64, %cl
	je	L1818
	movl	%edx, %ecx
	andl	$-16, %ecx
	cmpb	$-32, %cl
	je	L1819
	andl	$-8, %edx
	cmpb	$-16, %dl
	jne	L1599
	movl	$4, %edx
L1601:
	subl	$1, %edx
	movl	%edx, 8(%ebx)
	jmp	L1600
L1620:
	subl	$1, %esi
	movl	%esi, 8(%ebx)
	testl	%esi, %esi
	je	L1622
L1621:
	subl	$1, %edi
	je	L1556
	movl	8(%ebx), %esi
L1624:
	testl	%esi, %esi
	jne	L1620
L1622:
	addl	$1, 4(%ebx)
	jmp	L1621
L2159:
	movl	32(%esp), %ecx
	xorl	%esi, %esi
	jmp	L1709
L1567:
	leal	-1(%ebp), %eax
	movl	%eax, 180(%esp)
	movb	$48, -1(%ebp)
	movl	180(%esp), %eax
	cmpl	$2, 92(%esp)
	movl	%eax, 184(%esp)
	jne	L2143
	leal	-1(%eax), %edx
	movl	%edx, 180(%esp)
	movb	$120, -1(%eax)
	movl	180(%esp), %eax
	leal	-1(%eax), %edx
	movl	%edx, 180(%esp)
	movb	$48, -1(%eax)
	movl	180(%esp), %eax
	movl	188(%esp), %ebp
	jmp	L1559
L1562:
	leal	177(%esp), %ebp
	movb	%dl, 96(%esp)
	movl	%ebp, 188(%esp)
	movl	%ebp, 184(%esp)
	movl	%ebp, 180(%esp)
	cmpl	$16, %esi
	je	L1564
	movl	%ebp, %eax
	jmp	L1559
L1746:
	testl	%edx, %edx
	jne	L1748
	jmp	L1747
	.p2align 4,,10
L1763:
	subl	$1, %esi
	movl	%esi, 8(%ebx)
	testl	%esi, %esi
	je	L1765
L1764:
	subl	$1, %edx
	je	L1747
L1748:
	movl	8(%ebx), %esi
	testl	%esi, %esi
	jne	L1763
L1765:
	addl	$1, 4(%ebx)
	jmp	L1764
L1747:
	testl	%ecx, %ecx
	jne	L1762
	jmp	L1556
	.p2align 4,,10
L2165:
	subl	$1, %edx
	movl	%edx, 8(%ebx)
	testl	%edx, %edx
	jne	L1768
L1767:
	addl	$1, 4(%ebx)
L1768:
	addl	$1, %eax
	cmpl	%eax, %ebp
	je	L1556
L1762:
	movl	8(%ebx), %edx
	testl	%edx, %edx
	jne	L2165
	movzbl	(%eax), %edx
	testb	%dl, %dl
	jns	L1767
	movl	%edx, %ecx
	andl	$-32, %ecx
	cmpb	$-64, %cl
	je	L1853
	movl	%edx, %ecx
	andl	$-16, %ecx
	cmpb	$-32, %cl
	je	L1854
	andl	$-8, %edx
	cmpb	$-16, %dl
	jne	L1767
	movl	$4, %edx
L1769:
	subl	$1, %edx
	movl	%edx, 8(%ebx)
	jmp	L1768
L1749:
	movl	%edx, %edi
	testl	%ecx, %ecx
	jne	L1751
	jmp	L1757
	.p2align 4,,10
L2167:
	subl	$1, %ecx
	movl	%ecx, 8(%ebx)
	testl	%ecx, %ecx
	jne	L1755
L1754:
	addl	$1, 4(%ebx)
L1755:
	addl	$1, %eax
	cmpl	%eax, %ebp
	je	L2166
L1751:
	movl	8(%ebx), %ecx
	testl	%ecx, %ecx
	jne	L2167
	movzbl	(%eax), %ecx
	testb	%cl, %cl
	jns	L1754
	movl	%ecx, %esi
	andl	$-32, %esi
	movl	%esi, %edx
	cmpb	$-64, %dl
	je	L1851
	movl	%ecx, %esi
	andl	$-16, %esi
	movl	%esi, %edx
	cmpb	$-32, %dl
	je	L1852
	andl	$-8, %ecx
	cmpb	$-16, %cl
	jne	L1754
	movl	$4, %ecx
L1756:
	subl	$1, %ecx
	movl	%ecx, 8(%ebx)
	jmp	L1755
L2166:
	movl	%edi, %edx
L1757:
	testl	%edx, %edx
	jne	L1752
	jmp	L1556
	.p2align 4,,10
L1758:
	subl	$1, %eax
	movl	%eax, 8(%ebx)
	testl	%eax, %eax
	je	L1760
L1759:
	subl	$1, %edx
	je	L1556
L1752:
	movl	8(%ebx), %eax
	testl	%eax, %eax
	jne	L1758
L1760:
	addl	$1, 4(%ebx)
	jmp	L1759
L2148:
	movl	28(%esp), %edx
L1777:
	testl	%edx, %edx
	jne	L1772
	jmp	L1771
	.p2align 4,,10
L1779:
	subl	$1, %eax
	movl	%eax, 8(%ebx)
	testl	%eax, %eax
	je	L1781
L1780:
	subl	$1, %edx
	je	L1771
L1772:
	movl	8(%ebx), %eax
	testl	%eax, %eax
	jne	L1779
L1781:
	addl	$1, 4(%ebx)
	jmp	L1780
L1771:
	testl	%edi, %edi
	jne	L1778
	jmp	L1556
	.p2align 4,,10
L2168:
	subl	$1, %eax
	movl	%eax, 8(%ebx)
	testl	%eax, %eax
	jne	L1784
L1783:
	addl	$1, 4(%ebx)
L1784:
	addl	$1, %ecx
	cmpl	%ecx, %ebp
	je	L1556
L1778:
	movl	8(%ebx), %eax
	testl	%eax, %eax
	jne	L2168
	movzbl	(%ecx), %eax
	testb	%al, %al
	jns	L1783
	movl	%eax, %edx
	andl	$-32, %edx
	cmpb	$-64, %dl
	je	L1857
	movl	%eax, %edx
	andl	$-16, %edx
	cmpb	$-32, %dl
	je	L1858
	andl	$-8, %eax
	cmpb	$-16, %al
	jne	L1783
	movl	$4, %eax
L1785:
	subl	$1, %eax
	movl	%eax, 8(%ebx)
	jmp	L1784
L2157:
	movl	32(%esp), %ecx
	xorl	%esi, %esi
	jmp	L1630
L1678:
	testl	%esi, %esi
	je	L1696
	leal	-1(%esi), %eax
	movl	%eax, 8(%ebx)
	testl	%eax, %eax
	jne	L1694
L1696:
	movl	8(%ebx), %eax
	addl	$1, 4(%ebx)
	testl	%eax, %eax
	jne	L1694
L1695:
	addl	$1, 4(%ebx)
L1698:
	movl	28(%esp), %esi
	subl	%ecx, %esi
	jne	L1699
	jmp	L1704
	.p2align 4,,10
L1701:
	subl	$1, %eax
	movl	%eax, 8(%ebx)
	testl	%eax, %eax
	je	L1703
L1702:
	subl	$1, %esi
	je	L1704
L1699:
	movl	8(%ebx), %eax
	testl	%eax, %eax
	jne	L1701
L1703:
	addl	$1, 4(%ebx)
	jmp	L1702
L1704:
	testl	%ecx, %ecx
	jne	L1700
	jmp	L1556
	.p2align 4,,10
L2169:
	subl	$1, %eax
	movl	%eax, 8(%ebx)
	testl	%eax, %eax
	jne	L1707
L1706:
	addl	$1, 4(%ebx)
L1707:
	addl	$1, %edx
	cmpl	%edx, %ebp
	je	L1556
L1700:
	movl	8(%ebx), %eax
	testl	%eax, %eax
	jne	L2169
	movzbl	(%edx), %eax
	testb	%al, %al
	jns	L1706
	movl	%eax, %ecx
	andl	$-32, %ecx
	cmpb	$-64, %cl
	je	L1840
	movl	%eax, %ecx
	andl	$-16, %ecx
	cmpb	$-32, %cl
	je	L1841
	andl	$-8, %eax
	cmpb	$-16, %al
	jne	L1706
	movl	$4, %eax
L1708:
	subl	$1, %eax
	movl	%eax, 8(%ebx)
	jmp	L1707
L1860:
	movl	$2, %edx
	jmp	L1789
L1859:
	movl	$1, %edx
	jmp	L1789
L1694:
	subl	$1, %eax
	movl	%eax, 8(%ebx)
	testl	%eax, %eax
	je	L1695
	jmp	L1698
	.p2align 4,,10
L1588:
	testl	%esi, %esi
	je	L1607
	leal	-1(%esi), %eax
	movl	%eax, 8(%ebx)
	testl	%eax, %eax
	jne	L1605
L1607:
	movl	8(%ebx), %esi
	addl	$1, 4(%ebx)
	movl	%esi, %eax
	testl	%esi, %esi
	jne	L1605
L1606:
	addl	$1, 4(%ebx)
L1609:
	movl	28(%esp), %eax
	subl	%ecx, %eax
	jne	L1610
	jmp	L1615
	.p2align 4,,10
L1612:
	subl	$1, %esi
	movl	%esi, 8(%ebx)
	testl	%esi, %esi
	je	L1614
L1613:
	subl	$1, %eax
	je	L1615
L1610:
	testl	%esi, %esi
	jne	L1612
L1614:
	addl	$1, 4(%ebx)
	jmp	L1613
L1615:
	testl	%ecx, %ecx
	jne	L1611
	jmp	L1624
	.p2align 4,,10
L2170:
	leal	-1(%esi), %eax
	xorl	%esi, %esi
	movl	%eax, 8(%ebx)
	testl	%eax, %eax
	jne	L2144
L1617:
	addl	$1, 4(%ebx)
L1618:
	addl	$1, %edx
	cmpl	%ebp, %edx
	je	L1624
L1611:
	testl	%esi, %esi
	jne	L2170
	movzbl	(%edx), %eax
	testb	%al, %al
	jns	L1617
	movl	%eax, %ecx
	andl	$-32, %ecx
	cmpb	$-64, %cl
	je	L1820
	movl	%eax, %ecx
	andl	$-16, %ecx
	cmpb	$-32, %cl
	je	L1821
	andl	$-8, %eax
	cmpb	$-16, %al
	jne	L1617
	movl	$4, %eax
L1619:
	subl	$1, %eax
	movl	%eax, 8(%ebx)
L2144:
	movl	%eax, %esi
	jmp	L1618
L1716:
	testl	%esi, %esi
	je	L1731
	leal	-1(%esi), %eax
	movl	%eax, 8(%ebx)
	testl	%eax, %eax
	jne	L1732
L1731:
	addl	$1, 4(%ebx)
L1808:
	addl	$1, 4(%ebx)
L1809:
	movl	28(%esp), %esi
	subl	%ecx, %esi
	jne	L1733
	jmp	L1738
	.p2align 4,,10
L1735:
	subl	$1, %eax
	movl	%eax, 8(%ebx)
	testl	%eax, %eax
	je	L1737
L1736:
	subl	$1, %esi
	je	L1738
L1733:
	movl	8(%ebx), %eax
	testl	%eax, %eax
	jne	L1735
L1737:
	addl	$1, 4(%ebx)
	jmp	L1736
L1738:
	testl	%ecx, %ecx
	jne	L1734
	jmp	L1556
	.p2align 4,,10
L2171:
	subl	$1, %eax
	movl	%eax, 8(%ebx)
	testl	%eax, %eax
	jne	L1741
L1740:
	addl	$1, 4(%ebx)
L1741:
	addl	$1, %edx
	cmpl	%edx, %ebp
	je	L1556
L1734:
	movl	8(%ebx), %eax
	testl	%eax, %eax
	jne	L2171
	movzbl	(%edx), %eax
	testb	%al, %al
	jns	L1740
	movl	%eax, %ecx
	andl	$-32, %ecx
	cmpb	$-64, %cl
	je	L1849
	movl	%eax, %ecx
	andl	$-16, %ecx
	cmpb	$-32, %cl
	je	L1850
	andl	$-8, %eax
	cmpb	$-16, %al
	jne	L1740
	movl	$4, %eax
L1742:
	subl	$1, %eax
	movl	%eax, 8(%ebx)
	jmp	L1741
L2162:
	movl	36(%esp), %ecx
	xorl	%esi, %esi
	movl	32(%esp), %edx
	jmp	L1581
L2160:
	movl	%edi, %eax
L1722:
	addl	$1, 4(%ebx)
	xorl	%esi, %esi
	jmp	L1730
L1605:
	subl	$1, %eax
	xorl	%esi, %esi
	movl	%eax, 8(%ebx)
	testl	%eax, %eax
	je	L1606
	movl	%eax, %esi
	jmp	L1609
	.p2align 4,,10
L1637:
	testl	%esi, %esi
	je	L1653
	leal	-1(%esi), %eax
	movl	%eax, 8(%ebx)
	testl	%eax, %eax
	jne	L1651
L1653:
	movl	8(%ebx), %eax
	addl	$1, 4(%ebx)
	testl	%eax, %eax
	jne	L1651
L1652:
	addl	$1, 4(%ebx)
L1655:
	movl	28(%esp), %esi
	subl	%ecx, %esi
	jne	L1656
	jmp	L1661
	.p2align 4,,10
L1658:
	subl	$1, %eax
	movl	%eax, 8(%ebx)
	testl	%eax, %eax
	je	L1660
L1659:
	subl	$1, %esi
	je	L1661
L1656:
	movl	8(%ebx), %eax
	testl	%eax, %eax
	jne	L1658
L1660:
	addl	$1, 4(%ebx)
	jmp	L1659
L1661:
	testl	%ecx, %ecx
	jne	L1657
	jmp	L1556
	.p2align 4,,10
L2172:
	subl	$1, %eax
	movl	%eax, 8(%ebx)
	testl	%eax, %eax
	jne	L1664
L1663:
	addl	$1, 4(%ebx)
L1664:
	addl	$1, %edx
	cmpl	%edx, %ebp
	je	L1556
L1657:
	movl	8(%ebx), %eax
	testl	%eax, %eax
	jne	L2172
	movzbl	(%edx), %eax
	testb	%al, %al
	jns	L1663
	movl	%eax, %ecx
	andl	$-32, %ecx
	cmpb	$-64, %cl
	je	L1830
	movl	%eax, %ecx
	andl	$-16, %ecx
	cmpb	$-32, %cl
	je	L1831
	andl	$-8, %eax
	cmpb	$-16, %al
	jne	L1663
	movl	$4, %eax
L1665:
	subl	$1, %eax
	movl	%eax, 8(%ebx)
	jmp	L1664
L1732:
	subl	$2, %esi
	movl	%esi, 8(%ebx)
	testl	%esi, %esi
	je	L1808
	jmp	L1809
	.p2align 4,,10
L2153:
	movl	36(%esp), %ecx
	xorl	%esi, %esi
	movl	32(%esp), %edx
	jmp	L1677
L1651:
	subl	$1, %eax
	movl	%eax, 8(%ebx)
	testl	%eax, %eax
	je	L1652
	jmp	L1655
L1565:
	movb	$98, 176(%esp)
	leal	176(%esp), %ebp
	jmp	L1564
L1831:
	movl	$3, %eax
	jmp	L1665
L1830:
	movl	$2, %eax
	jmp	L1665
L1850:
	movl	$3, %eax
	jmp	L1742
L1849:
	movl	$2, %eax
	jmp	L1742
L1841:
	movl	$3, %eax
	jmp	L1708
L1840:
	movl	$2, %eax
	jmp	L1708
L1821:
	movl	$3, %eax
	jmp	L1619
L1820:
	movl	$2, %eax
	jmp	L1619
L1858:
	movl	$3, %eax
	jmp	L1785
L1857:
	movl	$2, %eax
	jmp	L1785
L1852:
	movl	$3, %ecx
	jmp	L1756
L1851:
	movl	$2, %ecx
	jmp	L1756
L1854:
	movl	$3, %edx
	jmp	L1769
L1853:
	movl	$2, %edx
	jmp	L1769
L1819:
	movl	$3, %edx
	jmp	L1601
L1818:
	movl	$2, %edx
	jmp	L1601
L1817:
	movl	$3, %esi
	jmp	L1593
L1816:
	movl	$2, %esi
	jmp	L1593
L2163:
	movl	28(%esp), %eax
	jmp	L1594
L1589:
	testl	%esi, %esi
	je	L1594
	jmp	L1595
L1814:
	movl	$3, %esi
	jmp	L1585
L1813:
	movl	$2, %esi
	jmp	L1585
L1848:
	movl	$3, %edx
	jmp	L1729
L1847:
	movl	$2, %edx
	jmp	L1729
L1846:
	movl	$3, %esi
	jmp	L1721
L1845:
	movl	$2, %esi
	jmp	L1721
L1717:
	testl	%esi, %esi
	jne	L1723
	jmp	L1722
L1843:
	movl	$3, %esi
	jmp	L1713
L1842:
	movl	$2, %esi
	jmp	L1713
L1839:
	movl	$3, %edx
	jmp	L1691
L1838:
	movl	$2, %edx
	jmp	L1691
L1829:
	movl	$3, %eax
	jmp	L1648
L1828:
	movl	$2, %eax
	jmp	L1648
L1827:
	movl	$3, %esi
	jmp	L1641
L1826:
	movl	$2, %esi
	jmp	L1641
L1824:
	movl	$3, %esi
	jmp	L1634
L1823:
	movl	$2, %esi
	jmp	L1634
L1833:
	movl	$3, %esi
	jmp	L1670
L1832:
	movl	$2, %esi
	jmp	L1670
L1837:
	movl	$3, %esi
	jmp	L1683
L1836:
	movl	$2, %esi
	jmp	L1683
L2154:
	movl	%edi, %eax
	jmp	L1684
L1679:
	testl	%esi, %esi
	je	L1684
	jmp	L1685
L1856:
	movl	$3, %eax
	jmp	L1776
L1855:
	movl	$2, %eax
	jmp	L1776
	.cfi_endproc
LFE5287:
	.section	.text$_ZN5CCore6PrintfIRNS_10PrintCountIvEEJyEEEvOT_PKcDpRKT0_,"x"
	.linkonce discard
	.p2align 4,,15
	.globl	__ZN5CCore6PrintfIRNS_10PrintCountIvEEJyEEEvOT_PKcDpRKT0_
	.def	__ZN5CCore6PrintfIRNS_10PrintCountIvEEJyEEEvOT_PKcDpRKT0_;	.scl	2;	.type	32;	.endef
__ZN5CCore6PrintfIRNS_10PrintCountIvEEJyEEEvOT_PKcDpRKT0_:
LFB5170:
	.cfi_startproc
	pushl	%ebp
	.cfi_def_cfa_offset 8
	.cfi_offset 5, -8
	pushl	%edi
	.cfi_def_cfa_offset 12
	.cfi_offset 7, -12
	pushl	%esi
	.cfi_def_cfa_offset 16
	.cfi_offset 6, -16
	pushl	%ebx
	.cfi_def_cfa_offset 20
	.cfi_offset 3, -20
	subl	$204, %esp
	.cfi_def_cfa_offset 224
	movl	224(%esp), %eax
	movl	232(%esp), %esi
	movl	%eax, 52(%esp)
	movl	228(%esp), %eax
	movl	%eax, 56(%esp)
	leal	52(%esp), %eax
	movl	%eax, (%esp)
	call	__ZN5CCore9PrintfDevIRNS_10PrintCountIvEEE4findEv
	testl	%eax, %eax
	je	L2174
	movl	%eax, 4(%esp)
	leal	60(%esp), %eax
	movl	52(%esp), %ebx
	movl	%edx, 8(%esp)
	movl	%eax, (%esp)
	call	__ZN5CCore11IntPrintOptC1EPKcS2_
	movl	4(%esi), %eax
	movl	(%esi), %ecx
	movl	76(%esp), %edx
	movl	64(%esp), %esi
	movl	%eax, 32(%esp)
	movl	60(%esp), %eax
	movl	%edx, 88(%esp)
	movl	%esi, 84(%esp)
	movl	%eax, 40(%esp)
	movl	68(%esp), %eax
	movl	%eax, 28(%esp)
	movl	72(%esp), %eax
	movl	%eax, 36(%esp)
	movl	80(%esp), %eax
	movl	%eax, 92(%esp)
	testl	%esi, %esi
	jne	L2175
	leal	177(%esp), %ebp
	orl	%edx, %eax
	setne	96(%esp)
	movl	%ebp, 188(%esp)
	movl	%ebp, 184(%esp)
	testl	%eax, %eax
	jne	L2764
	leal	176(%esp), %eax
	movb	%cl, 176(%esp)
	movl	%eax, 180(%esp)
L2177:
	movl	28(%esp), %esi
	testl	%esi, %esi
	jne	L2765
L2191:
	movl	40(%esp), %edi
	movl	%ebp, %ecx
	subl	%eax, %ecx
	cmpl	%ecx, %edi
	jbe	L2362
	movl	84(%esp), %esi
	subl	%ecx, %edi
	movl	%edi, %edx
	testl	%esi, %esi
	jne	L2363
	cmpl	$2, 36(%esp)
	je	L2364
L2363:
	movl	36(%esp), %edi
	cmpl	$1, %edi
	je	L2364
	jb	L2367
	cmpl	$2, %edi
	jne	L2174
	movl	184(%esp), %ecx
	movl	%ebp, %edi
	subl	%ecx, %edi
	cmpl	%eax, %ecx
	je	L2395
	movl	%eax, %esi
	movl	%edx, 28(%esp)
	jmp	L2388
L2767:
	subl	$1, %eax
	movl	%eax, 8(%ebx)
	testl	%eax, %eax
	jne	L2393
L2392:
	addl	$1, 4(%ebx)
L2393:
	addl	$1, %esi
	cmpl	%esi, %ecx
	je	L2766
L2388:
	movl	8(%ebx), %eax
	testl	%eax, %eax
	jne	L2767
	movzbl	(%esi), %eax
	testb	%al, %al
	jns	L2392
	movl	%eax, %edx
	andl	$-32, %edx
	cmpb	$-64, %dl
	je	L2473
	movl	%eax, %edx
	andl	$-16, %edx
	cmpb	$-32, %dl
	je	L2474
	andl	$-8, %eax
	cmpb	$-16, %al
	jne	L2392
	movl	$4, %eax
L2394:
	subl	$1, %eax
	movl	%eax, 8(%ebx)
	jmp	L2393
	.p2align 4,,10
L2174:
	movl	56(%esp), %ebx
L2409:
	cmpb	$0, (%ebx)
	je	L2759
	.p2align 4,,10
L2422:
	movl	%ebx, (%esp)
	movl	$35, 4(%esp)
	call	__ZN5CCore13PrintfDevBase4FindEPKcc
	movl	56(%esp), %ecx
	movl	%eax, %ebx
	movl	52(%esp), %edx
	cmpl	%ecx, %eax
	jne	L2416
	jmp	L2411
	.p2align 4,,10
L2768:
	subl	$1, %eax
	movl	%eax, 8(%edx)
	testl	%eax, %eax
	jne	L2414
L2413:
	addl	$1, 4(%edx)
L2414:
	addl	$1, %ecx
	cmpl	%ecx, %ebx
	je	L2411
L2416:
	movl	8(%edx), %eax
	testl	%eax, %eax
	jne	L2768
	movzbl	(%ecx), %edi
	movl	%edi, %eax
	testb	%al, %al
	jns	L2413
	movl	%edi, %esi
	andl	$-32, %esi
	movl	%esi, %eax
	cmpb	$-64, %al
	je	L2479
	movl	%edi, %esi
	andl	$-16, %esi
	movl	%esi, %eax
	cmpb	$-32, %al
	je	L2480
	movl	%edi, %eax
	andl	$-8, %eax
	cmpb	$-16, %al
	jne	L2413
	movl	$3, %eax
L2415:
	addl	$1, %ecx
	movl	%eax, 8(%edx)
	cmpl	%ecx, %ebx
	jne	L2416
	.p2align 4,,10
L2411:
	cmpb	$0, (%ebx)
	je	L2417
	cmpb	$35, 1(%ebx)
	jne	L2418
	movl	8(%edx), %eax
	testl	%eax, %eax
	je	L2421
	subl	$1, %eax
	movl	%eax, 8(%edx)
	testl	%eax, %eax
	je	L2421
L2420:
	addl	$2, %ebx
	movl	%ebx, 56(%esp)
	jmp	L2422
	.p2align 4,,10
L2421:
	addl	$1, 4(%edx)
	jmp	L2420
	.p2align 4,,10
L2479:
	movl	$1, %eax
	jmp	L2415
	.p2align 4,,10
L2417:
	movl	%ebx, 56(%esp)
	cmpb	$0, (%ebx)
	jne	L2422
L2759:
	addl	$204, %esp
	.cfi_remember_state
	.cfi_def_cfa_offset 20
	popl	%ebx
	.cfi_restore 3
	.cfi_def_cfa_offset 16
	popl	%esi
	.cfi_restore 6
	.cfi_def_cfa_offset 12
	popl	%edi
	.cfi_restore 7
	.cfi_def_cfa_offset 8
	popl	%ebp
	.cfi_restore 5
	.cfi_def_cfa_offset 4
	ret
	.p2align 4,,10
L2480:
	.cfi_restore_state
	movl	$2, %eax
	jmp	L2415
	.p2align 4,,10
L2418:
	addl	$1, %ebx
	movl	$59, 4(%esp)
	movl	%ebx, (%esp)
	call	__ZN5CCore13PrintfDevBase4FindEPKcc
	cmpb	$0, (%eax)
	je	L2417
	leal	1(%eax), %ebx
	movl	%ebx, 56(%esp)
	jmp	L2409
L2175:
	leal	-2(%esi), %edx
	cmpl	$14, %edx
	ja	L2769
	cmpl	$16, %esi
	setne	%dl
	movl	%edx, %edi
	cmpl	$2, %eax
	je	L2180
	leal	177(%esp), %ebp
	cmpl	$1, %eax
	sete	%dl
	movl	%ebp, 188(%esp)
	andl	%edx, %edi
	cmpl	$2, %esi
	movl	%ebp, 184(%esp)
	setne	%dl
	movl	%ebp, 180(%esp)
	andl	%edi, %edx
	movb	%dl, 96(%esp)
	testb	%dl, %dl
	jne	L2179
	cmpl	$1, %eax
	jne	L2182
	cmpl	$2, %esi
	je	L2183
	cmpl	$16, %esi
	jne	L2182
	movb	$104, 176(%esp)
	leal	176(%esp), %ebp
L2182:
	movl	32(%esp), %eax
	orl	%ecx, %eax
	je	L2185
	xorl	%edi, %edi
	jmp	L2187
L2770:
	movl	180(%esp), %ebp
L2187:
	leal	-1(%ebp), %eax
	movl	%esi, 8(%esp)
	movl	%eax, 180(%esp)
	movl	32(%esp), %eax
	movl	%edi, 12(%esp)
	xorl	%edi, %edi
	movl	%ecx, (%esp)
	movl	%ecx, 44(%esp)
	movl	%eax, 4(%esp)
	call	___umoddi3
	movl	44(%esp), %ecx
	movzbl	LC1(%eax), %eax
	movb	%al, -1(%ebp)
	movl	32(%esp), %eax
	movl	84(%esp), %esi
	movl	%ecx, (%esp)
	movl	%edi, 12(%esp)
	movl	%eax, 4(%esp)
	movl	%esi, 8(%esp)
	call	___udivdi3
	movl	%eax, %ecx
	movl	%edx, %eax
	movl	%edx, 32(%esp)
	orl	%ecx, %eax
	jne	L2770
	movl	180(%esp), %eax
	cmpl	$2, 92(%esp)
	movl	%eax, 184(%esp)
	jne	L2425
	leal	-1(%eax), %edx
	movl	%edx, 180(%esp)
	movb	$120, -1(%eax)
	movl	180(%esp), %eax
	leal	-1(%eax), %edx
	movl	%edx, 180(%esp)
	movb	$48, -1(%eax)
	movl	180(%esp), %eax
L2425:
	cmpl	$1, 88(%esp)
	jne	L2761
	leal	-1(%eax), %edx
	movl	%edx, 180(%esp)
	movb	$43, -1(%eax)
	movl	180(%esp), %eax
L2761:
	movl	28(%esp), %esi
	movl	188(%esp), %ebp
	testl	%esi, %esi
	je	L2191
L2765:
	movl	184(%esp), %edx
	movl	%ebp, %ecx
	addl	$2, %esi
	movl	%edx, %edi
	subl	%edx, %ecx
	subl	%eax, %edi
	cmpl	28(%esp), %ecx
	movl	%edi, 32(%esp)
	leal	1(%ecx), %edi
	cmova	%edi, %esi
	movl	40(%esp), %edi
	addl	32(%esp), %esi
	cmpl	%edi, %esi
	jnb	L2194
	subl	%esi, %edi
	movl	36(%esp), %esi
	cmpl	$1, %esi
	je	L2196
	jb	L2197
	cmpl	$2, %esi
	jne	L2174
	cmpl	$0, 32(%esp)
	movl	8(%ebx), %esi
	je	L2295
	movl	%ecx, 36(%esp)
	movl	%edx, 32(%esp)
L2290:
	testl	%esi, %esi
	je	L2285
	subl	$1, %esi
	movl	%esi, 8(%ebx)
	testl	%esi, %esi
	jne	L2287
L2286:
	addl	$1, 4(%ebx)
	addl	$1, %eax
	cmpl	%eax, 32(%esp)
	je	L2771
L2285:
	movzbl	(%eax), %ecx
	testb	%cl, %cl
	jns	L2286
	movl	%ecx, %esi
	andl	$-32, %esi
	movl	%esi, %edx
	cmpb	$-64, %dl
	je	L2450
	movl	%ecx, %esi
	andl	$-16, %esi
	movl	%esi, %edx
	cmpb	$-32, %dl
	je	L2451
	andl	$-8, %ecx
	movl	$4, %esi
	cmpb	$-16, %cl
	jne	L2286
L2288:
	subl	$1, %esi
	movl	%esi, 8(%ebx)
L2287:
	addl	$1, %eax
	cmpl	%eax, 32(%esp)
	jne	L2290
	movl	36(%esp), %ecx
	movl	32(%esp), %edx
L2295:
	testl	%esi, %esi
	je	L2294
	subl	$1, %esi
	movl	%esi, 8(%ebx)
	testl	%esi, %esi
	je	L2294
	subl	$1, %edi
	jne	L2295
L2293:
	movl	28(%esp), %eax
	cmpl	%eax, %ecx
	jbe	L2296
	subl	%eax, %ecx
	leal	(%edx,%ecx), %eax
	testl	%ecx, %ecx
	je	L2297
	movl	%eax, %edi
L2304:
	testl	%esi, %esi
	je	L2298
	subl	$1, %esi
	movl	%esi, 8(%ebx)
	testl	%esi, %esi
	jne	L2300
L2299:
	addl	$1, 4(%ebx)
	addl	$1, %edx
	cmpl	%edx, %edi
	je	L2772
L2298:
	movzbl	(%edx), %ecx
	testb	%cl, %cl
	jns	L2299
	movl	%ecx, %esi
	andl	$-32, %esi
	movl	%esi, %eax
	cmpb	$-64, %al
	je	L2454
	movl	%ecx, %esi
	andl	$-16, %esi
	movl	%esi, %eax
	cmpb	$-32, %al
	je	L2455
	andl	$-8, %ecx
	movl	$4, %esi
	cmpb	$-16, %cl
	jne	L2299
L2301:
	subl	$1, %esi
	movl	%esi, 8(%ebx)
L2300:
	addl	$1, %edx
	cmpl	%edx, %edi
	jne	L2304
	movl	%edi, %eax
L2303:
	subl	$1, %esi
	movl	%esi, 8(%ebx)
	testl	%esi, %esi
	jne	L2310
L2302:
	addl	$1, 4(%ebx)
	xorl	%esi, %esi
	jmp	L2310
L2773:
	subl	$1, %esi
	movl	%esi, 8(%ebx)
	testl	%esi, %esi
	jne	L2308
L2307:
	addl	$1, 4(%ebx)
L2308:
	addl	$1, %eax
	cmpl	%eax, %ebp
	je	L2174
	movl	8(%ebx), %esi
L2310:
	testl	%esi, %esi
	jne	L2773
	movzbl	(%eax), %edx
	testb	%dl, %dl
	jns	L2307
	movl	%edx, %ecx
	andl	$-32, %ecx
	cmpb	$-64, %cl
	je	L2456
	movl	%edx, %ecx
	andl	$-16, %ecx
	cmpb	$-32, %cl
	je	L2457
	andl	$-8, %edx
	cmpb	$-16, %dl
	jne	L2307
	movl	$4, %edx
L2309:
	subl	$1, %edx
	movl	%edx, 8(%ebx)
	jmp	L2308
L2362:
	testl	%ecx, %ecx
	jne	L2408
	jmp	L2174
	.p2align 4,,10
L2774:
	subl	$1, %edx
	movl	%edx, 8(%ebx)
	testl	%edx, %edx
	jne	L2406
L2405:
	addl	$1, 4(%ebx)
L2406:
	addl	$1, %eax
	cmpl	%eax, %ebp
	je	L2174
L2408:
	movl	8(%ebx), %edx
	testl	%edx, %edx
	jne	L2774
	movzbl	(%eax), %edx
	testb	%dl, %dl
	jns	L2405
	movl	%edx, %ecx
	andl	$-32, %ecx
	cmpb	$-64, %cl
	je	L2477
	movl	%edx, %ecx
	andl	$-16, %ecx
	cmpb	$-32, %cl
	je	L2478
	andl	$-8, %edx
	cmpb	$-16, %dl
	jne	L2405
	movl	$3, %edx
L2407:
	movl	%edx, 8(%ebx)
	jmp	L2406
L2769:
	leal	177(%esp), %ebp
	movb	$1, 96(%esp)
	movl	%ebp, 188(%esp)
	movl	%ebp, 184(%esp)
	movl	%ebp, 180(%esp)
L2179:
	movl	%ebp, %eax
	jmp	L2177
L2294:
	addl	$1, 4(%ebx)
	subl	$1, %edi
	jne	L2294
	xorl	%esi, %esi
	jmp	L2293
L2196:
	movl	8(%ebx), %esi
L2247:
	testl	%esi, %esi
	je	L2246
	subl	$1, %esi
	movl	%esi, 8(%ebx)
	testl	%esi, %esi
	je	L2246
	subl	$1, %edi
	jne	L2247
L2245:
	movl	32(%esp), %edi
	testl	%edi, %edi
	je	L2248
	movl	%ecx, 32(%esp)
L2254:
	testl	%esi, %esi
	je	L2249
	subl	$1, %esi
	movl	%esi, 8(%ebx)
	testl	%esi, %esi
	jne	L2251
L2250:
	addl	$1, 4(%ebx)
	addl	$1, %eax
	cmpl	%eax, %edx
	je	L2775
L2249:
	movzbl	(%eax), %esi
	movl	%esi, %ecx
	testb	%cl, %cl
	jns	L2250
	movl	%esi, %edi
	andl	$-32, %edi
	movl	%edi, %ecx
	cmpb	$-64, %cl
	je	L2441
	movl	%esi, %edi
	andl	$-16, %edi
	movl	%edi, %ecx
	cmpb	$-32, %cl
	je	L2442
	andl	$-8, %esi
	movl	%esi, %ecx
	movl	$4, %esi
	cmpb	$-16, %cl
	jne	L2250
L2252:
	subl	$1, %esi
	movl	%esi, 8(%ebx)
L2251:
	addl	$1, %eax
	cmpl	%eax, %edx
	jne	L2254
	movl	32(%esp), %ecx
L2248:
	movl	28(%esp), %eax
	cmpl	%eax, %ecx
	jbe	L2255
	subl	%eax, %ecx
	addl	%edx, %ecx
	movl	%ecx, %edi
L2262:
	testl	%esi, %esi
	je	L2256
	subl	$1, %esi
	movl	%esi, 8(%ebx)
	testl	%esi, %esi
	jne	L2258
L2257:
	addl	$1, 4(%ebx)
	addl	$1, %edx
	cmpl	%edx, %edi
	je	L2260
L2256:
	movzbl	(%edx), %eax
	testb	%al, %al
	jns	L2257
	movl	%eax, %esi
	andl	$-32, %esi
	movl	%esi, %ecx
	cmpb	$-64, %cl
	je	L2444
	movl	%eax, %esi
	andl	$-16, %esi
	movl	%esi, %ecx
	cmpb	$-32, %cl
	je	L2445
	andl	$-8, %eax
	movl	$4, %esi
	cmpb	$-16, %al
	jne	L2257
L2259:
	subl	$1, %esi
	movl	%esi, 8(%ebx)
L2258:
	addl	$1, %edx
	cmpl	%edx, %edi
	jne	L2262
	subl	$1, %esi
	movl	%esi, 8(%ebx)
	testl	%esi, %esi
	jne	L2428
L2260:
	addl	$1, 4(%ebx)
	xorl	%esi, %esi
L2428:
	movl	28(%esp), %ecx
	addl	%edx, %ecx
	movl	%ecx, %edi
	jmp	L2267
L2776:
	subl	$1, %esi
	movl	%esi, 8(%ebx)
	testl	%esi, %esi
	jne	L2265
L2264:
	addl	$1, 4(%ebx)
L2265:
	addl	$1, %edx
	cmpl	%edi, %edx
	je	L2174
	movl	8(%ebx), %esi
L2267:
	testl	%esi, %esi
	jne	L2776
	movzbl	(%edx), %eax
	testb	%al, %al
	jns	L2264
	movl	%eax, %esi
	andl	$-32, %esi
	movl	%esi, %ecx
	cmpb	$-64, %cl
	je	L2446
	movl	%eax, %esi
	andl	$-16, %esi
	movl	%esi, %ecx
	cmpb	$-32, %cl
	je	L2447
	andl	$-8, %eax
	cmpb	$-16, %al
	jne	L2264
	movl	$4, %eax
L2266:
	subl	$1, %eax
	movl	%eax, 8(%ebx)
	jmp	L2265
L2246:
	addl	$1, 4(%ebx)
	subl	$1, %edi
	jne	L2246
	xorl	%esi, %esi
	jmp	L2245
L2764:
	movl	%ebp, 180(%esp)
	movl	%ebp, %eax
	jmp	L2177
L2194:
	movl	32(%esp), %edi
	movl	8(%ebx), %esi
	testl	%edi, %edi
	je	L2327
	movl	%ecx, 32(%esp)
L2333:
	testl	%esi, %esi
	je	L2328
	subl	$1, %esi
	movl	%esi, 8(%ebx)
	testl	%esi, %esi
	jne	L2330
L2329:
	addl	$1, 4(%ebx)
	addl	$1, %eax
	cmpl	%eax, %edx
	je	L2777
L2328:
	movzbl	(%eax), %esi
	movl	%esi, %ecx
	testb	%cl, %cl
	jns	L2329
	movl	%esi, %edi
	andl	$-32, %edi
	movl	%edi, %ecx
	cmpb	$-64, %cl
	je	L2460
	movl	%esi, %edi
	andl	$-16, %edi
	movl	%edi, %ecx
	cmpb	$-32, %cl
	je	L2461
	andl	$-8, %esi
	movl	%esi, %ecx
	movl	$4, %esi
	cmpb	$-16, %cl
	jne	L2329
L2331:
	subl	$1, %esi
	movl	%esi, 8(%ebx)
L2330:
	addl	$1, %eax
	cmpl	%eax, %edx
	jne	L2333
	movl	32(%esp), %ecx
L2327:
	movl	28(%esp), %eax
	cmpl	%eax, %ecx
	jbe	L2334
	subl	%eax, %ecx
	leal	(%edx,%ecx), %eax
	testl	%ecx, %ecx
	je	L2335
	movl	%eax, %edi
L2342:
	testl	%esi, %esi
	je	L2336
	subl	$1, %esi
	movl	%esi, 8(%ebx)
	testl	%esi, %esi
	jne	L2338
L2337:
	addl	$1, 4(%ebx)
	addl	$1, %edx
	cmpl	%edi, %edx
	je	L2778
L2336:
	movzbl	(%edx), %ecx
	testb	%cl, %cl
	jns	L2337
	movl	%ecx, %esi
	andl	$-32, %esi
	movl	%esi, %eax
	cmpb	$-64, %al
	je	L2463
	movl	%ecx, %esi
	andl	$-16, %esi
	movl	%esi, %eax
	cmpb	$-32, %al
	je	L2464
	andl	$-8, %ecx
	movl	$4, %esi
	cmpb	$-16, %cl
	jne	L2337
L2339:
	subl	$1, %esi
	movl	%esi, 8(%ebx)
L2338:
	addl	$1, %edx
	cmpl	%edx, %edi
	jne	L2342
	movl	%edi, %eax
L2341:
	subl	$1, %esi
	movl	%esi, 8(%ebx)
	testl	%esi, %esi
	jne	L2348
	jmp	L2340
	.p2align 4,,10
L2779:
	subl	$1, %esi
	movl	%esi, 8(%ebx)
	testl	%esi, %esi
	jne	L2346
L2345:
	addl	$1, 4(%ebx)
L2346:
	addl	$1, %eax
	cmpl	%eax, %ebp
	je	L2174
	movl	8(%ebx), %esi
L2348:
	testl	%esi, %esi
	jne	L2779
	movzbl	(%eax), %edx
	testb	%dl, %dl
	jns	L2345
	movl	%edx, %ecx
	andl	$-32, %ecx
	cmpb	$-64, %cl
	je	L2465
	movl	%edx, %ecx
	andl	$-16, %ecx
	cmpb	$-32, %cl
	je	L2466
	andl	$-8, %edx
	cmpb	$-16, %dl
	jne	L2345
	movl	$4, %edx
L2347:
	subl	$1, %edx
	movl	%edx, 8(%ebx)
	jmp	L2346
L2197:
	cmpl	$0, 32(%esp)
	movl	8(%ebx), %esi
	je	L2199
	movl	%ecx, 36(%esp)
	movl	%edx, 32(%esp)
L2205:
	testl	%esi, %esi
	je	L2200
	subl	$1, %esi
	movl	%esi, 8(%ebx)
	testl	%esi, %esi
	jne	L2202
L2201:
	addl	$1, 4(%ebx)
	addl	$1, %eax
	cmpl	%eax, 32(%esp)
	je	L2780
L2200:
	movzbl	(%eax), %ecx
	testb	%cl, %cl
	jns	L2201
	movl	%ecx, %esi
	andl	$-32, %esi
	movl	%esi, %edx
	cmpb	$-64, %dl
	je	L2431
	movl	%ecx, %esi
	andl	$-16, %esi
	movl	%esi, %edx
	cmpb	$-32, %dl
	je	L2432
	andl	$-8, %ecx
	movl	$4, %esi
	cmpb	$-16, %cl
	jne	L2201
L2203:
	subl	$1, %esi
	movl	%esi, 8(%ebx)
L2202:
	addl	$1, %eax
	cmpl	%eax, 32(%esp)
	jne	L2205
	movl	36(%esp), %ecx
	movl	32(%esp), %edx
L2199:
	movl	28(%esp), %eax
	cmpl	%eax, %ecx
	jbe	L2206
	subl	%eax, %ecx
	leal	(%edx,%ecx), %eax
	testl	%ecx, %ecx
	je	L2207
	movl	%eax, 28(%esp)
L2214:
	testl	%esi, %esi
	je	L2208
	subl	$1, %esi
	movl	%esi, 8(%ebx)
	testl	%esi, %esi
	jne	L2210
L2209:
	addl	$1, 4(%ebx)
	addl	$1, %edx
	cmpl	%edx, 28(%esp)
	je	L2781
L2208:
	movzbl	(%edx), %ecx
	testb	%cl, %cl
	jns	L2209
	movl	%ecx, %esi
	andl	$-32, %esi
	movl	%esi, %eax
	cmpb	$-64, %al
	je	L2434
	movl	%ecx, %esi
	andl	$-16, %esi
	movl	%esi, %eax
	cmpb	$-32, %al
	je	L2435
	andl	$-8, %ecx
	movl	$4, %esi
	cmpb	$-16, %cl
	jne	L2209
L2211:
	subl	$1, %esi
	movl	%esi, 8(%ebx)
L2210:
	addl	$1, %edx
	cmpl	%edx, 28(%esp)
	jne	L2214
	movl	28(%esp), %eax
L2213:
	subl	$1, %esi
	movl	%esi, 8(%ebx)
	testl	%esi, %esi
	jne	L2221
L2212:
	addl	$1, 4(%ebx)
	xorl	%esi, %esi
	jmp	L2221
L2782:
	subl	$1, %esi
	movl	%esi, 8(%ebx)
	testl	%esi, %esi
	jne	L2218
L2217:
	addl	$1, 4(%ebx)
L2218:
	addl	$1, %eax
	movl	8(%ebx), %esi
	cmpl	%ebp, %eax
	je	L2242
L2221:
	testl	%esi, %esi
	jne	L2782
	movzbl	(%eax), %edx
	testb	%dl, %dl
	jns	L2217
	movl	%edx, %ecx
	andl	$-32, %ecx
	cmpb	$-64, %cl
	je	L2436
	movl	%edx, %ecx
	andl	$-16, %ecx
	cmpb	$-32, %cl
	je	L2437
	andl	$-8, %edx
	cmpb	$-16, %dl
	jne	L2217
	movl	$4, %edx
L2219:
	subl	$1, %edx
	movl	%edx, 8(%ebx)
	jmp	L2218
L2238:
	subl	$1, %esi
	movl	%esi, 8(%ebx)
	testl	%esi, %esi
	je	L2240
L2239:
	subl	$1, %edi
	je	L2174
	movl	8(%ebx), %esi
L2242:
	testl	%esi, %esi
	jne	L2238
L2240:
	addl	$1, 4(%ebx)
	jmp	L2239
L2777:
	movl	32(%esp), %ecx
	xorl	%esi, %esi
	jmp	L2327
L2185:
	leal	-1(%ebp), %eax
	movl	%eax, 180(%esp)
	movb	$48, -1(%ebp)
	movl	180(%esp), %eax
	cmpl	$2, 92(%esp)
	movl	%eax, 184(%esp)
	jne	L2761
	leal	-1(%eax), %edx
	movl	%edx, 180(%esp)
	movb	$120, -1(%eax)
	movl	180(%esp), %eax
	leal	-1(%eax), %edx
	movl	%edx, 180(%esp)
	movb	$48, -1(%eax)
	movl	180(%esp), %eax
	movl	188(%esp), %ebp
	jmp	L2177
L2180:
	leal	177(%esp), %ebp
	movb	%dl, 96(%esp)
	movl	%ebp, 188(%esp)
	movl	%ebp, 184(%esp)
	movl	%ebp, 180(%esp)
	cmpl	$16, %esi
	je	L2182
	movl	%ebp, %eax
	jmp	L2177
L2364:
	testl	%edx, %edx
	jne	L2366
	jmp	L2365
	.p2align 4,,10
L2381:
	subl	$1, %esi
	movl	%esi, 8(%ebx)
	testl	%esi, %esi
	je	L2383
L2382:
	subl	$1, %edx
	je	L2365
L2366:
	movl	8(%ebx), %esi
	testl	%esi, %esi
	jne	L2381
L2383:
	addl	$1, 4(%ebx)
	jmp	L2382
L2365:
	testl	%ecx, %ecx
	jne	L2380
	jmp	L2174
	.p2align 4,,10
L2783:
	subl	$1, %edx
	movl	%edx, 8(%ebx)
	testl	%edx, %edx
	jne	L2386
L2385:
	addl	$1, 4(%ebx)
L2386:
	addl	$1, %eax
	cmpl	%eax, %ebp
	je	L2174
L2380:
	movl	8(%ebx), %edx
	testl	%edx, %edx
	jne	L2783
	movzbl	(%eax), %edx
	testb	%dl, %dl
	jns	L2385
	movl	%edx, %ecx
	andl	$-32, %ecx
	cmpb	$-64, %cl
	je	L2471
	movl	%edx, %ecx
	andl	$-16, %ecx
	cmpb	$-32, %cl
	je	L2472
	andl	$-8, %edx
	cmpb	$-16, %dl
	jne	L2385
	movl	$4, %edx
L2387:
	subl	$1, %edx
	movl	%edx, 8(%ebx)
	jmp	L2386
L2367:
	movl	%edx, %edi
	testl	%ecx, %ecx
	jne	L2369
	jmp	L2375
	.p2align 4,,10
L2785:
	subl	$1, %ecx
	movl	%ecx, 8(%ebx)
	testl	%ecx, %ecx
	jne	L2373
L2372:
	addl	$1, 4(%ebx)
L2373:
	addl	$1, %eax
	cmpl	%eax, %ebp
	je	L2784
L2369:
	movl	8(%ebx), %ecx
	testl	%ecx, %ecx
	jne	L2785
	movzbl	(%eax), %ecx
	testb	%cl, %cl
	jns	L2372
	movl	%ecx, %esi
	andl	$-32, %esi
	movl	%esi, %edx
	cmpb	$-64, %dl
	je	L2469
	movl	%ecx, %esi
	andl	$-16, %esi
	movl	%esi, %edx
	cmpb	$-32, %dl
	je	L2470
	andl	$-8, %ecx
	cmpb	$-16, %cl
	jne	L2372
	movl	$4, %ecx
L2374:
	subl	$1, %ecx
	movl	%ecx, 8(%ebx)
	jmp	L2373
L2784:
	movl	%edi, %edx
L2375:
	testl	%edx, %edx
	jne	L2370
	jmp	L2174
	.p2align 4,,10
L2376:
	subl	$1, %eax
	movl	%eax, 8(%ebx)
	testl	%eax, %eax
	je	L2378
L2377:
	subl	$1, %edx
	je	L2174
L2370:
	movl	8(%ebx), %eax
	testl	%eax, %eax
	jne	L2376
L2378:
	addl	$1, 4(%ebx)
	jmp	L2377
L2766:
	movl	28(%esp), %edx
L2395:
	testl	%edx, %edx
	jne	L2390
	jmp	L2389
	.p2align 4,,10
L2397:
	subl	$1, %eax
	movl	%eax, 8(%ebx)
	testl	%eax, %eax
	je	L2399
L2398:
	subl	$1, %edx
	je	L2389
L2390:
	movl	8(%ebx), %eax
	testl	%eax, %eax
	jne	L2397
L2399:
	addl	$1, 4(%ebx)
	jmp	L2398
L2389:
	testl	%edi, %edi
	jne	L2396
	jmp	L2174
	.p2align 4,,10
L2786:
	subl	$1, %eax
	movl	%eax, 8(%ebx)
	testl	%eax, %eax
	jne	L2402
L2401:
	addl	$1, 4(%ebx)
L2402:
	addl	$1, %ecx
	cmpl	%ecx, %ebp
	je	L2174
L2396:
	movl	8(%ebx), %eax
	testl	%eax, %eax
	jne	L2786
	movzbl	(%ecx), %eax
	testb	%al, %al
	jns	L2401
	movl	%eax, %edx
	andl	$-32, %edx
	cmpb	$-64, %dl
	je	L2475
	movl	%eax, %edx
	andl	$-16, %edx
	cmpb	$-32, %dl
	je	L2476
	andl	$-8, %eax
	cmpb	$-16, %al
	jne	L2401
	movl	$4, %eax
L2403:
	subl	$1, %eax
	movl	%eax, 8(%ebx)
	jmp	L2402
L2775:
	movl	32(%esp), %ecx
	xorl	%esi, %esi
	jmp	L2248
L2296:
	testl	%esi, %esi
	je	L2314
	leal	-1(%esi), %eax
	movl	%eax, 8(%ebx)
	testl	%eax, %eax
	jne	L2312
L2314:
	movl	8(%ebx), %eax
	addl	$1, 4(%ebx)
	testl	%eax, %eax
	jne	L2312
L2313:
	addl	$1, 4(%ebx)
L2316:
	movl	28(%esp), %esi
	subl	%ecx, %esi
	jne	L2317
	jmp	L2322
	.p2align 4,,10
L2319:
	subl	$1, %eax
	movl	%eax, 8(%ebx)
	testl	%eax, %eax
	je	L2321
L2320:
	subl	$1, %esi
	je	L2322
L2317:
	movl	8(%ebx), %eax
	testl	%eax, %eax
	jne	L2319
L2321:
	addl	$1, 4(%ebx)
	jmp	L2320
L2322:
	testl	%ecx, %ecx
	jne	L2318
	jmp	L2174
	.p2align 4,,10
L2787:
	subl	$1, %eax
	movl	%eax, 8(%ebx)
	testl	%eax, %eax
	jne	L2325
L2324:
	addl	$1, 4(%ebx)
L2325:
	addl	$1, %edx
	cmpl	%edx, %ebp
	je	L2174
L2318:
	movl	8(%ebx), %eax
	testl	%eax, %eax
	jne	L2787
	movzbl	(%edx), %eax
	testb	%al, %al
	jns	L2324
	movl	%eax, %ecx
	andl	$-32, %ecx
	cmpb	$-64, %cl
	je	L2458
	movl	%eax, %ecx
	andl	$-16, %ecx
	cmpb	$-32, %cl
	je	L2459
	andl	$-8, %eax
	cmpb	$-16, %al
	jne	L2324
	movl	$4, %eax
L2326:
	subl	$1, %eax
	movl	%eax, 8(%ebx)
	jmp	L2325
L2478:
	movl	$2, %edx
	jmp	L2407
L2477:
	movl	$1, %edx
	jmp	L2407
L2312:
	subl	$1, %eax
	movl	%eax, 8(%ebx)
	testl	%eax, %eax
	je	L2313
	jmp	L2316
	.p2align 4,,10
L2206:
	testl	%esi, %esi
	je	L2225
	leal	-1(%esi), %eax
	movl	%eax, 8(%ebx)
	testl	%eax, %eax
	jne	L2223
L2225:
	movl	8(%ebx), %esi
	addl	$1, 4(%ebx)
	movl	%esi, %eax
	testl	%esi, %esi
	jne	L2223
L2224:
	addl	$1, 4(%ebx)
L2227:
	movl	28(%esp), %eax
	subl	%ecx, %eax
	jne	L2228
	jmp	L2233
	.p2align 4,,10
L2230:
	subl	$1, %esi
	movl	%esi, 8(%ebx)
	testl	%esi, %esi
	je	L2232
L2231:
	subl	$1, %eax
	je	L2233
L2228:
	testl	%esi, %esi
	jne	L2230
L2232:
	addl	$1, 4(%ebx)
	jmp	L2231
L2233:
	testl	%ecx, %ecx
	jne	L2229
	jmp	L2242
	.p2align 4,,10
L2788:
	leal	-1(%esi), %eax
	xorl	%esi, %esi
	movl	%eax, 8(%ebx)
	testl	%eax, %eax
	jne	L2762
L2235:
	addl	$1, 4(%ebx)
L2236:
	addl	$1, %edx
	cmpl	%ebp, %edx
	je	L2242
L2229:
	testl	%esi, %esi
	jne	L2788
	movzbl	(%edx), %eax
	testb	%al, %al
	jns	L2235
	movl	%eax, %ecx
	andl	$-32, %ecx
	cmpb	$-64, %cl
	je	L2438
	movl	%eax, %ecx
	andl	$-16, %ecx
	cmpb	$-32, %cl
	je	L2439
	andl	$-8, %eax
	cmpb	$-16, %al
	jne	L2235
	movl	$4, %eax
L2237:
	subl	$1, %eax
	movl	%eax, 8(%ebx)
L2762:
	movl	%eax, %esi
	jmp	L2236
L2334:
	testl	%esi, %esi
	je	L2349
	leal	-1(%esi), %eax
	movl	%eax, 8(%ebx)
	testl	%eax, %eax
	jne	L2350
L2349:
	addl	$1, 4(%ebx)
L2426:
	addl	$1, 4(%ebx)
L2427:
	movl	28(%esp), %esi
	subl	%ecx, %esi
	jne	L2351
	jmp	L2356
	.p2align 4,,10
L2353:
	subl	$1, %eax
	movl	%eax, 8(%ebx)
	testl	%eax, %eax
	je	L2355
L2354:
	subl	$1, %esi
	je	L2356
L2351:
	movl	8(%ebx), %eax
	testl	%eax, %eax
	jne	L2353
L2355:
	addl	$1, 4(%ebx)
	jmp	L2354
L2356:
	testl	%ecx, %ecx
	jne	L2352
	jmp	L2174
	.p2align 4,,10
L2789:
	subl	$1, %eax
	movl	%eax, 8(%ebx)
	testl	%eax, %eax
	jne	L2359
L2358:
	addl	$1, 4(%ebx)
L2359:
	addl	$1, %edx
	cmpl	%edx, %ebp
	je	L2174
L2352:
	movl	8(%ebx), %eax
	testl	%eax, %eax
	jne	L2789
	movzbl	(%edx), %eax
	testb	%al, %al
	jns	L2358
	movl	%eax, %ecx
	andl	$-32, %ecx
	cmpb	$-64, %cl
	je	L2467
	movl	%eax, %ecx
	andl	$-16, %ecx
	cmpb	$-32, %cl
	je	L2468
	andl	$-8, %eax
	cmpb	$-16, %al
	jne	L2358
	movl	$4, %eax
L2360:
	subl	$1, %eax
	movl	%eax, 8(%ebx)
	jmp	L2359
L2780:
	movl	36(%esp), %ecx
	xorl	%esi, %esi
	movl	32(%esp), %edx
	jmp	L2199
L2778:
	movl	%edi, %eax
L2340:
	addl	$1, 4(%ebx)
	xorl	%esi, %esi
	jmp	L2348
L2223:
	subl	$1, %eax
	xorl	%esi, %esi
	movl	%eax, 8(%ebx)
	testl	%eax, %eax
	je	L2224
	movl	%eax, %esi
	jmp	L2227
	.p2align 4,,10
L2255:
	testl	%esi, %esi
	je	L2271
	leal	-1(%esi), %eax
	movl	%eax, 8(%ebx)
	testl	%eax, %eax
	jne	L2269
L2271:
	movl	8(%ebx), %eax
	addl	$1, 4(%ebx)
	testl	%eax, %eax
	jne	L2269
L2270:
	addl	$1, 4(%ebx)
L2273:
	movl	28(%esp), %esi
	subl	%ecx, %esi
	jne	L2274
	jmp	L2279
	.p2align 4,,10
L2276:
	subl	$1, %eax
	movl	%eax, 8(%ebx)
	testl	%eax, %eax
	je	L2278
L2277:
	subl	$1, %esi
	je	L2279
L2274:
	movl	8(%ebx), %eax
	testl	%eax, %eax
	jne	L2276
L2278:
	addl	$1, 4(%ebx)
	jmp	L2277
L2279:
	testl	%ecx, %ecx
	jne	L2275
	jmp	L2174
	.p2align 4,,10
L2790:
	subl	$1, %eax
	movl	%eax, 8(%ebx)
	testl	%eax, %eax
	jne	L2282
L2281:
	addl	$1, 4(%ebx)
L2282:
	addl	$1, %edx
	cmpl	%edx, %ebp
	je	L2174
L2275:
	movl	8(%ebx), %eax
	testl	%eax, %eax
	jne	L2790
	movzbl	(%edx), %eax
	testb	%al, %al
	jns	L2281
	movl	%eax, %ecx
	andl	$-32, %ecx
	cmpb	$-64, %cl
	je	L2448
	movl	%eax, %ecx
	andl	$-16, %ecx
	cmpb	$-32, %cl
	je	L2449
	andl	$-8, %eax
	cmpb	$-16, %al
	jne	L2281
	movl	$4, %eax
L2283:
	subl	$1, %eax
	movl	%eax, 8(%ebx)
	jmp	L2282
L2350:
	subl	$2, %esi
	movl	%esi, 8(%ebx)
	testl	%esi, %esi
	je	L2426
	jmp	L2427
	.p2align 4,,10
L2771:
	movl	36(%esp), %ecx
	xorl	%esi, %esi
	movl	32(%esp), %edx
	jmp	L2295
L2269:
	subl	$1, %eax
	movl	%eax, 8(%ebx)
	testl	%eax, %eax
	je	L2270
	jmp	L2273
L2183:
	movb	$98, 176(%esp)
	leal	176(%esp), %ebp
	jmp	L2182
L2449:
	movl	$3, %eax
	jmp	L2283
L2448:
	movl	$2, %eax
	jmp	L2283
L2468:
	movl	$3, %eax
	jmp	L2360
L2467:
	movl	$2, %eax
	jmp	L2360
L2459:
	movl	$3, %eax
	jmp	L2326
L2458:
	movl	$2, %eax
	jmp	L2326
L2439:
	movl	$3, %eax
	jmp	L2237
L2438:
	movl	$2, %eax
	jmp	L2237
L2476:
	movl	$3, %eax
	jmp	L2403
L2475:
	movl	$2, %eax
	jmp	L2403
L2470:
	movl	$3, %ecx
	jmp	L2374
L2469:
	movl	$2, %ecx
	jmp	L2374
L2472:
	movl	$3, %edx
	jmp	L2387
L2471:
	movl	$2, %edx
	jmp	L2387
L2437:
	movl	$3, %edx
	jmp	L2219
L2436:
	movl	$2, %edx
	jmp	L2219
L2435:
	movl	$3, %esi
	jmp	L2211
L2434:
	movl	$2, %esi
	jmp	L2211
L2781:
	movl	28(%esp), %eax
	jmp	L2212
L2207:
	testl	%esi, %esi
	je	L2212
	jmp	L2213
L2432:
	movl	$3, %esi
	jmp	L2203
L2431:
	movl	$2, %esi
	jmp	L2203
L2466:
	movl	$3, %edx
	jmp	L2347
L2465:
	movl	$2, %edx
	jmp	L2347
L2464:
	movl	$3, %esi
	jmp	L2339
L2463:
	movl	$2, %esi
	jmp	L2339
L2335:
	testl	%esi, %esi
	jne	L2341
	jmp	L2340
L2461:
	movl	$3, %esi
